; ModuleID = '/home/michael/ecen5139_final_project/CAV_MidtermPriorityQueue_Verilog_Runner/solution1/.autopilot/db/a.o.3.bc'
target datalayout = "e-p:64:64:64-i1:8:8-i8:8:8-i16:16:16-i32:32:32-i64:64:64-f32:32:32-f64:64:64-v64:64:64-v128:128:128-a0:0:64-s0:64:64-f80:128:128-n8:16:32:64-S128"
target triple = "x86_64-unknown-linux-gnu"

@random_priorities_old = constant [200 x i32] [i32 325, i32 437, i32 294, i32 197, i32 295, i32 178, i32 325, i32 500, i32 207, i32 384, i32 16, i32 21, i32 95, i32 491, i32 360, i32 22, i32 10, i32 263, i32 311, i32 410, i32 381, i32 333, i32 65, i32 191, i32 137, i32 184, i32 354, i32 94, i32 302, i32 106, i32 316, i32 421, i32 166, i32 475, i32 364, i32 250, i32 91, i32 273, i32 500, i32 383, i32 329, i32 439, i32 475, i32 234, i32 439, i32 491, i32 235, i32 240, i32 310, i32 362, i32 203, i32 53, i32 78, i32 415, i32 335, i32 214, i32 100, i32 435, i32 296, i32 69, i32 447, i32 125, i32 124, i32 374, i32 65, i32 213, i32 296, i32 339, i32 211, i32 374, i32 478, i32 402, i32 85, i32 353, i32 66, i32 200, i32 463, i32 181, i32 269, i32 271, i32 412, i32 58, i32 344, i32 474, i32 90, i32 105, i32 20, i32 156, i32 406, i32 309, i32 491, i32 415, i32 270, i32 92, i32 428, i32 16, i32 227, i32 441, i32 49, i32 377, i32 418, i32 424, i32 417, i32 66, i32 241, i32 329, i32 157, i32 154, i32 226, i32 439, i32 246, i32 28, i32 36, i32 423, i32 411, i32 12, i32 173, i32 226, i32 172, i32 150, i32 298, i32 406, i32 80, i32 325, i32 358, i32 446, i32 386, i32 75, i32 284, i32 417, i32 143, i32 24, i32 168, i32 297, i32 3, i32 116, i32 37, i32 186, i32 359, i32 222, i32 41, i32 120, i32 375, i32 279, i32 366, i32 354, i32 403, i32 62, i32 429, i32 405, i32 133, i32 303, i32 388, i32 193, i32 16, i32 283, i32 427, i32 233, i32 175, i32 455, i32 129, i32 158, i32 309, i32 59, i32 366, i32 108, i32 407, i32 387, i32 216, i32 381, i32 118, i32 342, i32 12, i32 61, i32 411, i32 110, i32 457, i32 88, i32 199, i32 419, i32 474, i32 116, i32 145, i32 8, i32 144, i32 32, i32 106, i32 451, i32 253, i32 115, i32 202, i32 494, i32 239, i32 188, i32 351, i32 155, i32 28, i32 227, i32 264, i32 184], align 16 ; [#uses=0 type=[200 x i32]*]
@p_str = private unnamed_addr constant [8 x i8] c"ap_none\00", align 1 ; [#uses=6 type=[8 x i8]*]
@p_str1 = private unnamed_addr constant [1 x i8] zeroinitializer, align 1 ; [#uses=32 type=[1 x i8]*]
@p_str2 = private unnamed_addr constant [11 x i8] c"ap_ctrl_hs\00", align 1 ; [#uses=1 type=[11 x i8]*]
@p_str3 = private unnamed_addr constant [10 x i8] c"AXI4LiteS\00", align 1 ; [#uses=2 type=[10 x i8]*]
@p_str4 = private unnamed_addr constant [3 x i8] c"P1\00", align 1 ; [#uses=3 type=[3 x i8]*]
@llvm_global_ctors_0 = appending global [1 x i32] [i32 65535] ; [#uses=0 type=[1 x i32]*]
@llvm_global_ctors_1 = appending global [1 x void ()*] [void ()* @_GLOBAL__I_a] ; [#uses=0 type=[1 x void ()*]*]
@str = internal constant [9 x i8] c"runQueue\00"  ; [#uses=1 type=[9 x i8]*]
@random_priorities = constant [200 x i9] [i9 -187, i9 -75, i9 -218, i9 197, i9 -217, i9 178, i9 -187, i9 -12, i9 207, i9 -128, i9 16, i9 21, i9 95, i9 -21, i9 -152, i9 22, i9 10, i9 -249, i9 -201, i9 -102, i9 -131, i9 -179, i9 65, i9 191, i9 137, i9 184, i9 -158, i9 94, i9 -210, i9 106, i9 -196, i9 -91, i9 166, i9 -37, i9 -148, i9 250, i9 91, i9 -239, i9 -12, i9 -129, i9 -183, i9 -73, i9 -37, i9 234, i9 -73, i9 -21, i9 235, i9 240, i9 -202, i9 -150, i9 203, i9 53, i9 78, i9 -97, i9 -177, i9 214, i9 100, i9 -77, i9 -216, i9 69, i9 -65, i9 125, i9 124, i9 -138, i9 65, i9 213, i9 -216, i9 -173, i9 211, i9 -138, i9 -34, i9 -110, i9 85, i9 -159, i9 66, i9 200, i9 -49, i9 181, i9 -243, i9 -241, i9 -100, i9 58, i9 -168, i9 -38, i9 90, i9 105, i9 20, i9 156, i9 -106, i9 -203, i9 -21, i9 -97, i9 -242, i9 92, i9 -84, i9 16, i9 227, i9 -71, i9 49, i9 -135, i9 -94, i9 -88, i9 -95, i9 66, i9 241, i9 -183, i9 157, i9 154, i9 226, i9 -73, i9 246, i9 28, i9 36, i9 -89, i9 -101, i9 12, i9 173, i9 226, i9 172, i9 150, i9 -214, i9 -106, i9 80, i9 -187, i9 -154, i9 -66, i9 -126, i9 75, i9 -228, i9 -95, i9 143, i9 24, i9 168, i9 -215, i9 3, i9 116, i9 37, i9 186, i9 -153, i9 222, i9 41, i9 120, i9 -137, i9 -233, i9 -146, i9 -158, i9 -109, i9 62, i9 -83, i9 -107, i9 133, i9 -209, i9 -124, i9 193, i9 16, i9 -229, i9 -85, i9 233, i9 175, i9 -57, i9 129, i9 158, i9 -203, i9 59, i9 -146, i9 108, i9 -105, i9 -125, i9 216, i9 -131, i9 118, i9 -170, i9 12, i9 61, i9 -101, i9 110, i9 -55, i9 88, i9 199, i9 -93, i9 -38, i9 116, i9 145, i9 8, i9 144, i9 32, i9 106, i9 -61, i9 253, i9 115, i9 202, i9 -18, i9 239, i9 188, i9 -161, i9 155, i9 28, i9 227, i9 -248, i9 184] ; [#uses=1 type=[200 x i9]*]

; [#uses=0]
define i1 @runQueue(i4* %priorityOut_V, i4 %priorityIn_V, i2* %cmdOut_V, i1 zeroext %empty, i1 zeroext %full, i4* %currentPriority_V) {
  %result = alloca i1, align 1                    ; [#uses=8 type=i1*]
  %last = alloca i32, align 4                     ; [#uses=3 type=i32*]
  call void (...)* @_ssdm_op_SpecBitsMap(i4* %priorityOut_V), !map !7
  call void (...)* @_ssdm_op_SpecBitsMap(i4 %priorityIn_V), !map !11
  call void (...)* @_ssdm_op_SpecBitsMap(i2* %cmdOut_V), !map !17
  call void (...)* @_ssdm_op_SpecBitsMap(i1 %empty), !map !21
  call void (...)* @_ssdm_op_SpecBitsMap(i1 %full), !map !25
  call void (...)* @_ssdm_op_SpecBitsMap(i4* %currentPriority_V), !map !29
  call void (...)* @_ssdm_op_SpecBitsMap(i1 false) nounwind, !map !33
  call void (...)* @_ssdm_op_SpecTopModule([9 x i8]* @str) nounwind
  %full_read = call i1 @_ssdm_op_Read.ap_none.i1(i1 %full) ; [#uses=1 type=i1]
  call void @llvm.dbg.value(metadata !{i1 %full_read}, i64 0, metadata !39), !dbg !678 ; [debug line = 36:38] [debug variable = full]
  call void @llvm.dbg.value(metadata !{i1 %full_read}, i64 0, metadata !39), !dbg !678 ; [debug line = 36:38] [debug variable = full]
  call void @llvm.dbg.value(metadata !{i1 %full_read}, i64 0, metadata !39), !dbg !678 ; [debug line = 36:38] [debug variable = full]
  call void @llvm.dbg.value(metadata !{i1 %full_read}, i64 0, metadata !39), !dbg !678 ; [debug line = 36:38] [debug variable = full]
  call void @llvm.dbg.value(metadata !{i1 %full_read}, i64 0, metadata !39), !dbg !678 ; [debug line = 36:38] [debug variable = full]
  call void @llvm.dbg.value(metadata !{i1 %full_read}, i64 0, metadata !39), !dbg !678 ; [debug line = 36:38] [debug variable = full]
  call void @llvm.dbg.value(metadata !{i1 %full_read}, i64 0, metadata !39), !dbg !678 ; [debug line = 36:38] [debug variable = full]
  call void @llvm.dbg.value(metadata !{i1 %full_read}, i64 0, metadata !39), !dbg !678 ; [debug line = 36:38] [debug variable = full]
  call void @llvm.dbg.value(metadata !{i1 %full_read}, i64 0, metadata !39), !dbg !678 ; [debug line = 36:38] [debug variable = full]
  call void @llvm.dbg.value(metadata !{i1 %full_read}, i64 0, metadata !39), !dbg !678 ; [debug line = 36:38] [debug variable = full]
  call void @llvm.dbg.value(metadata !{i1 %full_read}, i64 0, metadata !39), !dbg !678 ; [debug line = 36:38] [debug variable = full]
  call void @llvm.dbg.value(metadata !{i1 %full_read}, i64 0, metadata !39), !dbg !678 ; [debug line = 36:38] [debug variable = full]
  %empty_read = call i1 @_ssdm_op_Read.ap_none.i1(i1 %empty) ; [#uses=1 type=i1]
  call void @llvm.dbg.value(metadata !{i1 %empty_read}, i64 0, metadata !679), !dbg !680 ; [debug line = 36:17] [debug variable = empty]
  call void @llvm.dbg.value(metadata !{i1 %empty_read}, i64 0, metadata !679), !dbg !680 ; [debug line = 36:17] [debug variable = empty]
  call void @llvm.dbg.value(metadata !{i1 %empty_read}, i64 0, metadata !679), !dbg !680 ; [debug line = 36:17] [debug variable = empty]
  call void @llvm.dbg.value(metadata !{i1 %empty_read}, i64 0, metadata !679), !dbg !680 ; [debug line = 36:17] [debug variable = empty]
  call void @llvm.dbg.value(metadata !{i1 %empty_read}, i64 0, metadata !679), !dbg !680 ; [debug line = 36:17] [debug variable = empty]
  call void @llvm.dbg.value(metadata !{i1 %empty_read}, i64 0, metadata !679), !dbg !680 ; [debug line = 36:17] [debug variable = empty]
  call void @llvm.dbg.value(metadata !{i1 %empty_read}, i64 0, metadata !679), !dbg !680 ; [debug line = 36:17] [debug variable = empty]
  call void @llvm.dbg.value(metadata !{i1 %empty_read}, i64 0, metadata !679), !dbg !680 ; [debug line = 36:17] [debug variable = empty]
  call void @llvm.dbg.value(metadata !{i1 %empty_read}, i64 0, metadata !679), !dbg !680 ; [debug line = 36:17] [debug variable = empty]
  call void @llvm.dbg.value(metadata !{i1 %empty_read}, i64 0, metadata !679), !dbg !680 ; [debug line = 36:17] [debug variable = empty]
  call void @llvm.dbg.value(metadata !{i1 %empty_read}, i64 0, metadata !679), !dbg !680 ; [debug line = 36:17] [debug variable = empty]
  call void @llvm.dbg.value(metadata !{i1 %empty_read}, i64 0, metadata !679), !dbg !680 ; [debug line = 36:17] [debug variable = empty]
  %priorityIn_V_read = call i4 @_ssdm_op_Read.ap_none.i4(i4 %priorityIn_V) ; [#uses=3 type=i4]
  call void @llvm.dbg.value(metadata !{i4 %priorityIn_V_read}, i64 0, metadata !681), !dbg !697 ; [debug line = 59:108@36:0] [debug variable = priorityIn.V]
  call void @llvm.dbg.value(metadata !{i4 %priorityIn_V_read}, i64 0, metadata !700), !dbg !704 ; [debug line = 145:83@76:7] [debug variable = op.V]
  call void @llvm.dbg.value(metadata !{i4 %priorityIn_V_read}, i64 0, metadata !709), !dbg !712 ; [debug line = 145:83@145:105@76:7] [debug variable = op.V]
  call void @llvm.dbg.value(metadata !{i4 %priorityIn_V_read}, i64 0, metadata !714), !dbg !717 ; [debug line = 221:92@79:4] [debug variable = op2.V]
  call void @llvm.dbg.value(metadata !{i4 %priorityIn_V_read}, i64 0, metadata !700), !dbg !719 ; [debug line = 145:83@96:14] [debug variable = op.V]
  call void @llvm.dbg.value(metadata !{i4 %priorityIn_V_read}, i64 0, metadata !709), !dbg !722 ; [debug line = 145:83@145:105@96:14] [debug variable = op.V]
  call void @llvm.dbg.value(metadata !{i4 %priorityIn_V_read}, i64 0, metadata !714), !dbg !724 ; [debug line = 221:92@100:4] [debug variable = op2.V]
  call void @llvm.dbg.value(metadata !{i4 %priorityIn_V_read}, i64 0, metadata !700), !dbg !726 ; [debug line = 145:83@102:11] [debug variable = op.V]
  call void @llvm.dbg.value(metadata !{i4 %priorityIn_V_read}, i64 0, metadata !709), !dbg !728 ; [debug line = 145:83@145:105@102:11] [debug variable = op.V]
  %empty_assign = alloca i1, align 1              ; [#uses=9 type=i1*]
  %full_assign = alloca i1, align 1               ; [#uses=7 type=i1*]
  call void @llvm.dbg.value(metadata !{i4* %priorityOut_V}, i64 0, metadata !730), !dbg !732 ; [debug line = 35:32] [debug variable = priorityOut.V]
  call void @llvm.dbg.value(metadata !{i2* %cmdOut_V}, i64 0, metadata !733), !dbg !742 ; [debug line = 35:87] [debug variable = cmdOut.V]
  call void @llvm.dbg.value(metadata !{i1 %empty}, i64 0, metadata !679), !dbg !680 ; [debug line = 36:17] [debug variable = empty]
  call void @llvm.dbg.value(metadata !{i1 %empty}, i64 0, metadata !679), !dbg !680 ; [debug line = 36:17] [debug variable = empty]
  call void @llvm.dbg.value(metadata !{i1 %empty}, i64 0, metadata !679), !dbg !680 ; [debug line = 36:17] [debug variable = empty]
  call void @llvm.dbg.value(metadata !{i1 %empty}, i64 0, metadata !679), !dbg !680 ; [debug line = 36:17] [debug variable = empty]
  call void @llvm.dbg.value(metadata !{i1 %empty}, i64 0, metadata !679), !dbg !680 ; [debug line = 36:17] [debug variable = empty]
  call void @llvm.dbg.value(metadata !{i1 %empty}, i64 0, metadata !679), !dbg !680 ; [debug line = 36:17] [debug variable = empty]
  call void @llvm.dbg.value(metadata !{i1 %empty}, i64 0, metadata !679), !dbg !680 ; [debug line = 36:17] [debug variable = empty]
  call void @llvm.dbg.value(metadata !{i1 %empty}, i64 0, metadata !679), !dbg !680 ; [debug line = 36:17] [debug variable = empty]
  call void @llvm.dbg.value(metadata !{i1 %empty}, i64 0, metadata !679), !dbg !680 ; [debug line = 36:17] [debug variable = empty]
  call void @llvm.dbg.value(metadata !{i1 %empty}, i64 0, metadata !679), !dbg !680 ; [debug line = 36:17] [debug variable = empty]
  call void @llvm.dbg.value(metadata !{i1 %empty}, i64 0, metadata !679), !dbg !680 ; [debug line = 36:17] [debug variable = empty]
  call void @llvm.dbg.value(metadata !{i1 %empty}, i64 0, metadata !679), !dbg !680 ; [debug line = 36:17] [debug variable = empty]
  store volatile i1 %empty_read, i1* %empty_assign, align 1
  call void @llvm.dbg.value(metadata !{i1 %full}, i64 0, metadata !39), !dbg !678 ; [debug line = 36:38] [debug variable = full]
  call void @llvm.dbg.value(metadata !{i1 %full}, i64 0, metadata !39), !dbg !678 ; [debug line = 36:38] [debug variable = full]
  call void @llvm.dbg.value(metadata !{i1 %full}, i64 0, metadata !39), !dbg !678 ; [debug line = 36:38] [debug variable = full]
  call void @llvm.dbg.value(metadata !{i1 %full}, i64 0, metadata !39), !dbg !678 ; [debug line = 36:38] [debug variable = full]
  call void @llvm.dbg.value(metadata !{i1 %full}, i64 0, metadata !39), !dbg !678 ; [debug line = 36:38] [debug variable = full]
  call void @llvm.dbg.value(metadata !{i1 %full}, i64 0, metadata !39), !dbg !678 ; [debug line = 36:38] [debug variable = full]
  call void @llvm.dbg.value(metadata !{i1 %full}, i64 0, metadata !39), !dbg !678 ; [debug line = 36:38] [debug variable = full]
  call void @llvm.dbg.value(metadata !{i1 %full}, i64 0, metadata !39), !dbg !678 ; [debug line = 36:38] [debug variable = full]
  call void @llvm.dbg.value(metadata !{i1 %full}, i64 0, metadata !39), !dbg !678 ; [debug line = 36:38] [debug variable = full]
  call void @llvm.dbg.value(metadata !{i1 %full}, i64 0, metadata !39), !dbg !678 ; [debug line = 36:38] [debug variable = full]
  call void @llvm.dbg.value(metadata !{i1 %full}, i64 0, metadata !39), !dbg !678 ; [debug line = 36:38] [debug variable = full]
  call void @llvm.dbg.value(metadata !{i1 %full}, i64 0, metadata !39), !dbg !678 ; [debug line = 36:38] [debug variable = full]
  store volatile i1 %full_read, i1* %full_assign, align 1
  call void @llvm.dbg.value(metadata !{i4* %currentPriority_V}, i64 0, metadata !743), !dbg !745 ; [debug line = 36:61] [debug variable = currentPriority.V]
  call void @llvm.dbg.value(metadata !{i2* %cmdOut_V}, i64 0, metadata !746), !dbg !755 ; [debug line = 95:104@36:78] [debug variable = cmdOut.V]
  call void @llvm.dbg.value(metadata !{i4* %currentPriority_V}, i64 0, metadata !757), !dbg !763 ; [debug line = 77:113@36:182] [debug variable = currentPriority.V]
  call void @llvm.dbg.value(metadata !{i4 %priorityIn_V}, i64 0, metadata !681), !dbg !697 ; [debug line = 59:108@36:0] [debug variable = priorityIn.V]
  call void @llvm.dbg.value(metadata !{i4* %priorityOut_V}, i64 0, metadata !765), !dbg !771 ; [debug line = 41:109@36:0] [debug variable = priorityOut.V]
  call void (...)* @_ssdm_op_SpecWire(i4* %currentPriority_V, [8 x i8]* @p_str, i32 0, i32 0, i32 0, i32 0, [1 x i8]* @p_str1, [1 x i8]* @p_str1, [1 x i8]* @p_str1) nounwind, !dbg !772 ; [debug line = 39:1]
  call void (...)* @_ssdm_op_SpecWire(i1 %full, [8 x i8]* @p_str, i32 0, i32 0, i32 0, i32 0, [1 x i8]* @p_str1, [1 x i8]* @p_str1, [1 x i8]* @p_str1) nounwind, !dbg !773 ; [debug line = 41:1]
  call void (...)* @_ssdm_op_SpecWire(i1 %empty, [8 x i8]* @p_str, i32 0, i32 0, i32 0, i32 0, [1 x i8]* @p_str1, [1 x i8]* @p_str1, [1 x i8]* @p_str1) nounwind, !dbg !774 ; [debug line = 43:1]
  call void (...)* @_ssdm_op_SpecWire(i2* %cmdOut_V, [8 x i8]* @p_str, i32 0, i32 0, i32 0, i32 0, [1 x i8]* @p_str1, [1 x i8]* @p_str1, [1 x i8]* @p_str1) nounwind, !dbg !775 ; [debug line = 45:1]
  call void (...)* @_ssdm_op_SpecWire(i4 %priorityIn_V, [8 x i8]* @p_str, i32 0, i32 0, i32 0, i32 0, [1 x i8]* @p_str1, [1 x i8]* @p_str1, [1 x i8]* @p_str1) nounwind, !dbg !776 ; [debug line = 47:1]
  call void (...)* @_ssdm_op_SpecWire(i4* %priorityOut_V, [8 x i8]* @p_str, i32 0, i32 0, i32 0, i32 0, [1 x i8]* @p_str1, [1 x i8]* @p_str1, [1 x i8]* @p_str1) nounwind, !dbg !777 ; [debug line = 49:1]
  call void (...)* @_ssdm_op_SpecWire(i32 0, [11 x i8]* @p_str2, i32 0, i32 0, i32 0, i32 0, [1 x i8]* @p_str1, [1 x i8]* @p_str1, [1 x i8]* @p_str1) nounwind, !dbg !778 ; [debug line = 51:1]
  call void (...)* @_ssdm_op_SpecIFCore(i32 0, [1 x i8]* @p_str1, [10 x i8]* @p_str3, [1 x i8]* @p_str1, [1 x i8]* @p_str1, [1 x i8]* @p_str1, [1 x i8]* @p_str1), !dbg !779 ; [debug line = 53:1]
  %last_1 = zext i4 %priorityIn_V_read to i32, !dbg !780 ; [#uses=6 type=i32] [debug line = 1874:9@3359:0@76:7]
  store i32 0, i32* %last, align 4
  store i1 true, i1* %result, align 1
  br label %1, !dbg !1239                         ; [debug line = 58:10]

; <label>:1                                       ; preds = %35, %0
  %j = phi i1 [ false, %0 ], [ true, %35 ]        ; [#uses=1 type=i1]
  %result_load = load i1* %result, align 1        ; [#uses=3 type=i1]
  call void @llvm.dbg.value(metadata !{i32* %last}, i64 0, metadata !1240) ; [debug variable = last]
  %last_load = load i32* %last, align 4           ; [#uses=4 type=i32]
  %empty_2 = call i32 (...)* @_ssdm_op_SpecLoopTripCount(i64 1, i64 1, i64 1) ; [#uses=0 type=i32]
  br i1 %j, label %36, label %2, !dbg !1239       ; [debug line = 58:10]

; <label>:2                                       ; preds = %1
  call void (...)* @_ssdm_op_SpecLoopName([3 x i8]* @p_str4) nounwind, !dbg !1241 ; [debug line = 58:25]
  %tmp_4 = call i32 (...)* @_ssdm_op_SpecRegionBegin([3 x i8]* @p_str4), !dbg !1242 ; [#uses=1 type=i32] [debug line = 58:53]
  call void (...)* @_ssdm_op_SpecProtocol(i32 0, [1 x i8]* @p_str1) nounwind, !dbg !1243 ; [debug line = 59:1]
  call void @llvm.dbg.value(metadata !{i1* %full_assign}, i64 0, metadata !39), !dbg !1244 ; [debug line = 63:3] [debug variable = full]
  call void @llvm.dbg.value(metadata !{i1* %full_assign}, i64 0, metadata !39), !dbg !1244 ; [debug line = 63:3] [debug variable = full]
  call void @llvm.dbg.value(metadata !{i1* %full_assign}, i64 0, metadata !39), !dbg !1244 ; [debug line = 63:3] [debug variable = full]
  call void @llvm.dbg.value(metadata !{i1* %full_assign}, i64 0, metadata !39), !dbg !1244 ; [debug line = 63:3] [debug variable = full]
  call void @llvm.dbg.value(metadata !{i1* %full_assign}, i64 0, metadata !39), !dbg !1244 ; [debug line = 63:3] [debug variable = full]
  call void @llvm.dbg.value(metadata !{i1* %full_assign}, i64 0, metadata !39), !dbg !1244 ; [debug line = 63:3] [debug variable = full]
  call void @llvm.dbg.value(metadata !{i1* %full_assign}, i64 0, metadata !39), !dbg !1244 ; [debug line = 63:3] [debug variable = full]
  call void @llvm.dbg.value(metadata !{i1* %full_assign}, i64 0, metadata !39), !dbg !1244 ; [debug line = 63:3] [debug variable = full]
  call void @llvm.dbg.value(metadata !{i1* %full_assign}, i64 0, metadata !39), !dbg !1244 ; [debug line = 63:3] [debug variable = full]
  call void @llvm.dbg.value(metadata !{i1* %full_assign}, i64 0, metadata !39), !dbg !1244 ; [debug line = 63:3] [debug variable = full]
  call void @llvm.dbg.value(metadata !{i1* %full_assign}, i64 0, metadata !39), !dbg !1244 ; [debug line = 63:3] [debug variable = full]
  call void @llvm.dbg.value(metadata !{i1* %full_assign}, i64 0, metadata !39), !dbg !1244 ; [debug line = 63:3] [debug variable = full]
  %full_assign_load = load volatile i1* %full_assign, align 1, !dbg !1244 ; [#uses=1 type=i1] [debug line = 63:3]
  br i1 %full_assign_load, label %6, label %3, !dbg !1244 ; [debug line = 63:3]

; <label>:3                                       ; preds = %2
  call void @llvm.dbg.value(metadata !{i2* %cmdOut_V}, i64 0, metadata !1245), !dbg !1249 ; [debug line = 217:49@64:4] [debug variable = ssdm_int<2 + 1024 * 0, false>.V]
  call void @_ssdm_op_Write.ap_none.volatile.i2P(i2* %cmdOut_V, i2 1), !dbg !1252 ; [debug line = 218:10@64:4]
  call void @llvm.dbg.value(metadata !{i4* %priorityOut_V}, i64 0, metadata !1254), !dbg !1258 ; [debug line = 217:49@65:4] [debug variable = ssdm_int<4 + 1024 * 0, false>.V]
  call void @_ssdm_op_Write.ap_none.volatile.i4P(i4* %priorityOut_V, i4 0), !dbg !1260 ; [debug line = 218:10@65:4]
  br label %5

; <label>:4                                       ; preds = %5
  call void @llvm.dbg.value(metadata !{i2* %cmdOut_V}, i64 0, metadata !1245), !dbg !1249 ; [debug line = 217:49@64:4] [debug variable = ssdm_int<2 + 1024 * 0, false>.V]
  call void @_ssdm_op_Write.ap_none.volatile.i2P(i2* %cmdOut_V, i2 1), !dbg !1252 ; [debug line = 218:10@64:4]
  %tmp = trunc i32 %i_reg2mem to i4, !dbg !1262   ; [#uses=2 type=i4] [debug line = 204:62@204:77@65:4]
  call void @llvm.dbg.value(metadata !{i4* %priorityOut_V}, i64 0, metadata !1254), !dbg !1258 ; [debug line = 217:49@65:4] [debug variable = ssdm_int<4 + 1024 * 0, false>.V]
  call void @_ssdm_op_Write.ap_none.volatile.i4P(i4* %priorityOut_V, i4 %tmp), !dbg !1260 ; [debug line = 218:10@65:4]
  br label %5

; <label>:5                                       ; preds = %4, %3
  %i_reg2mem = phi i32 [ 1, %3 ], [ %i8, %4 ]     ; [#uses=2 type=i32]
  %tmp_reg2mem = phi i4 [ 0, %3 ], [ %tmp, %4 ]   ; [#uses=1 type=i4]
  call void (...)* @_ssdm_op_Wait(i32 1) nounwind, !dbg !1267 ; [debug line = 66:4]
  call void @llvm.dbg.value(metadata !{i4* %currentPriority_V}, i64 0, metadata !1254), !dbg !1268 ; [debug line = 217:49@67:4] [debug variable = ssdm_int<4 + 1024 * 0, false>.V]
  call void @_ssdm_op_Write.ap_none.volatile.i4P(i4* %currentPriority_V, i4 %tmp_reg2mem), !dbg !1270 ; [debug line = 218:10@67:4]
  call void (...)* @_ssdm_op_SpecIFCore(i4* %currentPriority_V, [1 x i8]* @p_str1, [10 x i8]* @p_str3, [1 x i8]* @p_str1, [1 x i8]* @p_str1, [1 x i8]* @p_str1, [1 x i8]* @p_str1), !dbg !1271 ; [debug line = 68:1]
  call void @llvm.dbg.value(metadata !{i1* %full_assign}, i64 0, metadata !39), !dbg !1244 ; [debug line = 63:3] [debug variable = full]
  call void @llvm.dbg.value(metadata !{i1* %full_assign}, i64 0, metadata !39), !dbg !1244 ; [debug line = 63:3] [debug variable = full]
  call void @llvm.dbg.value(metadata !{i1* %full_assign}, i64 0, metadata !39), !dbg !1244 ; [debug line = 63:3] [debug variable = full]
  call void @llvm.dbg.value(metadata !{i1* %full_assign}, i64 0, metadata !39), !dbg !1244 ; [debug line = 63:3] [debug variable = full]
  call void @llvm.dbg.value(metadata !{i1* %full_assign}, i64 0, metadata !39), !dbg !1244 ; [debug line = 63:3] [debug variable = full]
  call void @llvm.dbg.value(metadata !{i1* %full_assign}, i64 0, metadata !39), !dbg !1244 ; [debug line = 63:3] [debug variable = full]
  call void @llvm.dbg.value(metadata !{i1* %full_assign}, i64 0, metadata !39), !dbg !1244 ; [debug line = 63:3] [debug variable = full]
  call void @llvm.dbg.value(metadata !{i1* %full_assign}, i64 0, metadata !39), !dbg !1244 ; [debug line = 63:3] [debug variable = full]
  call void @llvm.dbg.value(metadata !{i1* %full_assign}, i64 0, metadata !39), !dbg !1244 ; [debug line = 63:3] [debug variable = full]
  call void @llvm.dbg.value(metadata !{i1* %full_assign}, i64 0, metadata !39), !dbg !1244 ; [debug line = 63:3] [debug variable = full]
  call void @llvm.dbg.value(metadata !{i1* %full_assign}, i64 0, metadata !39), !dbg !1244 ; [debug line = 63:3] [debug variable = full]
  call void @llvm.dbg.value(metadata !{i1* %full_assign}, i64 0, metadata !39), !dbg !1244 ; [debug line = 63:3] [debug variable = full]
  %full_assign_load_2 = load volatile i1* %full_assign, align 1, !dbg !1244 ; [#uses=1 type=i1] [debug line = 63:3]
  %i8 = add nsw i32 %i_reg2mem, 1, !dbg !1272     ; [#uses=1 type=i32] [debug line = 69:4]
  br i1 %full_assign_load_2, label %7, label %4, !dbg !1244 ; [debug line = 63:3]

; <label>:6                                       ; preds = %2
  call void @llvm.dbg.value(metadata !{i2* %cmdOut_V}, i64 0, metadata !1245), !dbg !1273 ; [debug line = 217:49@71:3] [debug variable = ssdm_int<2 + 1024 * 0, false>.V]
  call void @_ssdm_op_Write.ap_none.volatile.i2P(i2* %cmdOut_V, i2 0), !dbg !1275 ; [debug line = 218:10@71:3]
  call void @llvm.dbg.value(metadata !{i1* %empty_assign}, i64 0, metadata !679), !dbg !1276 ; [debug line = 73:3] [debug variable = empty]
  call void @llvm.dbg.value(metadata !{i1* %empty_assign}, i64 0, metadata !679), !dbg !1276 ; [debug line = 73:3] [debug variable = empty]
  call void @llvm.dbg.value(metadata !{i1* %empty_assign}, i64 0, metadata !679), !dbg !1276 ; [debug line = 73:3] [debug variable = empty]
  call void @llvm.dbg.value(metadata !{i1* %empty_assign}, i64 0, metadata !679), !dbg !1276 ; [debug line = 73:3] [debug variable = empty]
  call void @llvm.dbg.value(metadata !{i1* %empty_assign}, i64 0, metadata !679), !dbg !1276 ; [debug line = 73:3] [debug variable = empty]
  call void @llvm.dbg.value(metadata !{i1* %empty_assign}, i64 0, metadata !679), !dbg !1276 ; [debug line = 73:3] [debug variable = empty]
  call void @llvm.dbg.value(metadata !{i1* %empty_assign}, i64 0, metadata !679), !dbg !1276 ; [debug line = 73:3] [debug variable = empty]
  call void @llvm.dbg.value(metadata !{i1* %empty_assign}, i64 0, metadata !679), !dbg !1276 ; [debug line = 73:3] [debug variable = empty]
  call void @llvm.dbg.value(metadata !{i1* %empty_assign}, i64 0, metadata !679), !dbg !1276 ; [debug line = 73:3] [debug variable = empty]
  call void @llvm.dbg.value(metadata !{i1* %empty_assign}, i64 0, metadata !679), !dbg !1276 ; [debug line = 73:3] [debug variable = empty]
  call void @llvm.dbg.value(metadata !{i1* %empty_assign}, i64 0, metadata !679), !dbg !1276 ; [debug line = 73:3] [debug variable = empty]
  call void @llvm.dbg.value(metadata !{i1* %empty_assign}, i64 0, metadata !679), !dbg !1276 ; [debug line = 73:3] [debug variable = empty]
  %empty_assign_load = load volatile i1* %empty_assign, align 1, !dbg !1276 ; [#uses=1 type=i1] [debug line = 73:3]
  br i1 %empty_assign_load, label %13, label %9, !dbg !1276 ; [debug line = 73:3]

; <label>:7                                       ; preds = %5
  call void @llvm.dbg.value(metadata !{i2* %cmdOut_V}, i64 0, metadata !1245), !dbg !1273 ; [debug line = 217:49@71:3] [debug variable = ssdm_int<2 + 1024 * 0, false>.V]
  call void @_ssdm_op_Write.ap_none.volatile.i2P(i2* %cmdOut_V, i2 0), !dbg !1275 ; [debug line = 218:10@71:3]
  call void @llvm.dbg.value(metadata !{i1* %empty_assign}, i64 0, metadata !679), !dbg !1276 ; [debug line = 73:3] [debug variable = empty]
  call void @llvm.dbg.value(metadata !{i1* %empty_assign}, i64 0, metadata !679), !dbg !1276 ; [debug line = 73:3] [debug variable = empty]
  call void @llvm.dbg.value(metadata !{i1* %empty_assign}, i64 0, metadata !679), !dbg !1276 ; [debug line = 73:3] [debug variable = empty]
  call void @llvm.dbg.value(metadata !{i1* %empty_assign}, i64 0, metadata !679), !dbg !1276 ; [debug line = 73:3] [debug variable = empty]
  call void @llvm.dbg.value(metadata !{i1* %empty_assign}, i64 0, metadata !679), !dbg !1276 ; [debug line = 73:3] [debug variable = empty]
  call void @llvm.dbg.value(metadata !{i1* %empty_assign}, i64 0, metadata !679), !dbg !1276 ; [debug line = 73:3] [debug variable = empty]
  call void @llvm.dbg.value(metadata !{i1* %empty_assign}, i64 0, metadata !679), !dbg !1276 ; [debug line = 73:3] [debug variable = empty]
  call void @llvm.dbg.value(metadata !{i1* %empty_assign}, i64 0, metadata !679), !dbg !1276 ; [debug line = 73:3] [debug variable = empty]
  call void @llvm.dbg.value(metadata !{i1* %empty_assign}, i64 0, metadata !679), !dbg !1276 ; [debug line = 73:3] [debug variable = empty]
  call void @llvm.dbg.value(metadata !{i1* %empty_assign}, i64 0, metadata !679), !dbg !1276 ; [debug line = 73:3] [debug variable = empty]
  call void @llvm.dbg.value(metadata !{i1* %empty_assign}, i64 0, metadata !679), !dbg !1276 ; [debug line = 73:3] [debug variable = empty]
  call void @llvm.dbg.value(metadata !{i1* %empty_assign}, i64 0, metadata !679), !dbg !1276 ; [debug line = 73:3] [debug variable = empty]
  %empty_assign_load_2 = load volatile i1* %empty_assign, align 1, !dbg !1276 ; [#uses=1 type=i1] [debug line = 73:3]
  br i1 %empty_assign_load_2, label %14, label %10, !dbg !1276 ; [debug line = 73:3]

; <label>:8                                       ; preds = %11
  call void @llvm.dbg.value(metadata !{i2* %cmdOut_V}, i64 0, metadata !1245), !dbg !1277 ; [debug line = 217:49@74:4] [debug variable = ssdm_int<2 + 1024 * 0, false>.V]
  call void @_ssdm_op_Write.ap_none.volatile.i2P(i2* %cmdOut_V, i2 -2), !dbg !1279 ; [debug line = 218:10@74:4]
  store i1 %result_1_s, i1* %result, align 1
  br label %11

; <label>:9                                       ; preds = %6
  call void @llvm.dbg.value(metadata !{i2* %cmdOut_V}, i64 0, metadata !1245), !dbg !1277 ; [debug line = 217:49@74:4] [debug variable = ssdm_int<2 + 1024 * 0, false>.V]
  call void @_ssdm_op_Write.ap_none.volatile.i2P(i2* %cmdOut_V, i2 -2), !dbg !1279 ; [debug line = 218:10@74:4]
  br label %.preheader133

; <label>:10                                      ; preds = %7
  call void @llvm.dbg.value(metadata !{i2* %cmdOut_V}, i64 0, metadata !1245), !dbg !1277 ; [debug line = 217:49@74:4] [debug variable = ssdm_int<2 + 1024 * 0, false>.V]
  call void @_ssdm_op_Write.ap_none.volatile.i2P(i2* %cmdOut_V, i2 -2), !dbg !1279 ; [debug line = 218:10@74:4]
  br label %.preheader133

.preheader133:                                    ; preds = %10, %9
  br label %11, !dbg !1280                        ; [debug line = 75:4]

; <label>:11                                      ; preds = %.preheader133, %8
  %op2_assign_reg2mem = phi i32 [ %i_1_reg2mem, %8 ], [ 0, %.preheader133 ] ; [#uses=1 type=i32]
  %i_1_reg2mem = phi i32 [ %i_s, %8 ], [ 1, %.preheader133 ] ; [#uses=2 type=i32]
  %result_load_1 = load i1* %result, align 1, !dbg !705 ; [#uses=1 type=i1] [debug line = 76:7]
  call void (...)* @_ssdm_op_Wait(i32 1) nounwind, !dbg !1280 ; [debug line = 75:4]
  call void @llvm.dbg.value(metadata !{i4 %priorityIn_V}, i64 0, metadata !700), !dbg !704 ; [debug line = 145:83@76:7] [debug variable = op.V]
  call void @llvm.dbg.value(metadata !{i4 %priorityIn_V}, i64 0, metadata !709), !dbg !712 ; [debug line = 145:83@145:105@76:7] [debug variable = op.V]
  %tmp_3 = icmp eq i32 %last_1, %op2_assign_reg2mem, !dbg !780 ; [#uses=1 type=i1] [debug line = 1874:9@3359:0@76:7]
  %result_1_s = and i1 %tmp_3, %result_load_1, !dbg !705 ; [#uses=4 type=i1] [debug line = 76:7]
  call void @llvm.dbg.value(metadata !{i4* %currentPriority_V}, i64 0, metadata !1281), !dbg !1283 ; [debug line = 221:49@79:4] [debug variable = ssdm_int<4 + 1024 * 0, false>.V]
  call void @llvm.dbg.value(metadata !{i4 %priorityIn_V}, i64 0, metadata !714), !dbg !717 ; [debug line = 221:92@79:4] [debug variable = op2.V]
  call void @_ssdm_op_Write.ap_none.volatile.i4P(i4* %currentPriority_V, i4 %priorityIn_V_read), !dbg !1284 ; [debug line = 222:10@79:4]
  call void @llvm.dbg.value(metadata !{i1* %empty_assign}, i64 0, metadata !679), !dbg !1276 ; [debug line = 73:3] [debug variable = empty]
  call void @llvm.dbg.value(metadata !{i1* %empty_assign}, i64 0, metadata !679), !dbg !1276 ; [debug line = 73:3] [debug variable = empty]
  call void @llvm.dbg.value(metadata !{i1* %empty_assign}, i64 0, metadata !679), !dbg !1276 ; [debug line = 73:3] [debug variable = empty]
  call void @llvm.dbg.value(metadata !{i1* %empty_assign}, i64 0, metadata !679), !dbg !1276 ; [debug line = 73:3] [debug variable = empty]
  call void @llvm.dbg.value(metadata !{i1* %empty_assign}, i64 0, metadata !679), !dbg !1276 ; [debug line = 73:3] [debug variable = empty]
  call void @llvm.dbg.value(metadata !{i1* %empty_assign}, i64 0, metadata !679), !dbg !1276 ; [debug line = 73:3] [debug variable = empty]
  call void @llvm.dbg.value(metadata !{i1* %empty_assign}, i64 0, metadata !679), !dbg !1276 ; [debug line = 73:3] [debug variable = empty]
  call void @llvm.dbg.value(metadata !{i1* %empty_assign}, i64 0, metadata !679), !dbg !1276 ; [debug line = 73:3] [debug variable = empty]
  call void @llvm.dbg.value(metadata !{i1* %empty_assign}, i64 0, metadata !679), !dbg !1276 ; [debug line = 73:3] [debug variable = empty]
  call void @llvm.dbg.value(metadata !{i1* %empty_assign}, i64 0, metadata !679), !dbg !1276 ; [debug line = 73:3] [debug variable = empty]
  call void @llvm.dbg.value(metadata !{i1* %empty_assign}, i64 0, metadata !679), !dbg !1276 ; [debug line = 73:3] [debug variable = empty]
  call void @llvm.dbg.value(metadata !{i1* %empty_assign}, i64 0, metadata !679), !dbg !1276 ; [debug line = 73:3] [debug variable = empty]
  %empty_assign_load_4 = load volatile i1* %empty_assign, align 1, !dbg !1276 ; [#uses=1 type=i1] [debug line = 73:3]
  %i_s = add nsw i32 %i_1_reg2mem, 1, !dbg !1286  ; [#uses=1 type=i32] [debug line = 81:4]
  br i1 %empty_assign_load_4, label %12, label %8, !dbg !1276 ; [debug line = 73:3]

; <label>:12                                      ; preds = %11
  call void @llvm.dbg.value(metadata !{i2* %cmdOut_V}, i64 0, metadata !1245), !dbg !1287 ; [debug line = 217:49@83:3] [debug variable = ssdm_int<2 + 1024 * 0, false>.V]
  call void @_ssdm_op_Write.ap_none.volatile.i2P(i2* %cmdOut_V, i2 0), !dbg !1289 ; [debug line = 218:10@83:3]
  call void @llvm.dbg.value(metadata !{i1* %full_assign}, i64 0, metadata !39), !dbg !1290 ; [debug line = 85:3] [debug variable = full]
  call void @llvm.dbg.value(metadata !{i1* %full_assign}, i64 0, metadata !39), !dbg !1290 ; [debug line = 85:3] [debug variable = full]
  call void @llvm.dbg.value(metadata !{i1* %full_assign}, i64 0, metadata !39), !dbg !1290 ; [debug line = 85:3] [debug variable = full]
  call void @llvm.dbg.value(metadata !{i1* %full_assign}, i64 0, metadata !39), !dbg !1290 ; [debug line = 85:3] [debug variable = full]
  call void @llvm.dbg.value(metadata !{i1* %full_assign}, i64 0, metadata !39), !dbg !1290 ; [debug line = 85:3] [debug variable = full]
  call void @llvm.dbg.value(metadata !{i1* %full_assign}, i64 0, metadata !39), !dbg !1290 ; [debug line = 85:3] [debug variable = full]
  call void @llvm.dbg.value(metadata !{i1* %full_assign}, i64 0, metadata !39), !dbg !1290 ; [debug line = 85:3] [debug variable = full]
  call void @llvm.dbg.value(metadata !{i1* %full_assign}, i64 0, metadata !39), !dbg !1290 ; [debug line = 85:3] [debug variable = full]
  call void @llvm.dbg.value(metadata !{i1* %full_assign}, i64 0, metadata !39), !dbg !1290 ; [debug line = 85:3] [debug variable = full]
  call void @llvm.dbg.value(metadata !{i1* %full_assign}, i64 0, metadata !39), !dbg !1290 ; [debug line = 85:3] [debug variable = full]
  call void @llvm.dbg.value(metadata !{i1* %full_assign}, i64 0, metadata !39), !dbg !1290 ; [debug line = 85:3] [debug variable = full]
  call void @llvm.dbg.value(metadata !{i1* %full_assign}, i64 0, metadata !39), !dbg !1290 ; [debug line = 85:3] [debug variable = full]
  %full_assign_load_4 = load volatile i1* %full_assign, align 1, !dbg !1290 ; [#uses=1 type=i1] [debug line = 85:3]
  br i1 %full_assign_load_4, label %21, label %16, !dbg !1290 ; [debug line = 85:3]

; <label>:13                                      ; preds = %6
  call void @llvm.dbg.value(metadata !{i2* %cmdOut_V}, i64 0, metadata !1245), !dbg !1287 ; [debug line = 217:49@83:3] [debug variable = ssdm_int<2 + 1024 * 0, false>.V]
  call void @_ssdm_op_Write.ap_none.volatile.i2P(i2* %cmdOut_V, i2 0), !dbg !1289 ; [debug line = 218:10@83:3]
  call void @llvm.dbg.value(metadata !{i1* %full_assign}, i64 0, metadata !39), !dbg !1290 ; [debug line = 85:3] [debug variable = full]
  call void @llvm.dbg.value(metadata !{i1* %full_assign}, i64 0, metadata !39), !dbg !1290 ; [debug line = 85:3] [debug variable = full]
  call void @llvm.dbg.value(metadata !{i1* %full_assign}, i64 0, metadata !39), !dbg !1290 ; [debug line = 85:3] [debug variable = full]
  call void @llvm.dbg.value(metadata !{i1* %full_assign}, i64 0, metadata !39), !dbg !1290 ; [debug line = 85:3] [debug variable = full]
  call void @llvm.dbg.value(metadata !{i1* %full_assign}, i64 0, metadata !39), !dbg !1290 ; [debug line = 85:3] [debug variable = full]
  call void @llvm.dbg.value(metadata !{i1* %full_assign}, i64 0, metadata !39), !dbg !1290 ; [debug line = 85:3] [debug variable = full]
  call void @llvm.dbg.value(metadata !{i1* %full_assign}, i64 0, metadata !39), !dbg !1290 ; [debug line = 85:3] [debug variable = full]
  call void @llvm.dbg.value(metadata !{i1* %full_assign}, i64 0, metadata !39), !dbg !1290 ; [debug line = 85:3] [debug variable = full]
  call void @llvm.dbg.value(metadata !{i1* %full_assign}, i64 0, metadata !39), !dbg !1290 ; [debug line = 85:3] [debug variable = full]
  call void @llvm.dbg.value(metadata !{i1* %full_assign}, i64 0, metadata !39), !dbg !1290 ; [debug line = 85:3] [debug variable = full]
  call void @llvm.dbg.value(metadata !{i1* %full_assign}, i64 0, metadata !39), !dbg !1290 ; [debug line = 85:3] [debug variable = full]
  call void @llvm.dbg.value(metadata !{i1* %full_assign}, i64 0, metadata !39), !dbg !1290 ; [debug line = 85:3] [debug variable = full]
  %full_assign_load_1 = load volatile i1* %full_assign, align 1, !dbg !1290 ; [#uses=1 type=i1] [debug line = 85:3]
  br i1 %full_assign_load_1, label %22, label %17, !dbg !1290 ; [debug line = 85:3]

; <label>:14                                      ; preds = %7
  call void @llvm.dbg.value(metadata !{i2* %cmdOut_V}, i64 0, metadata !1245), !dbg !1287 ; [debug line = 217:49@83:3] [debug variable = ssdm_int<2 + 1024 * 0, false>.V]
  call void @_ssdm_op_Write.ap_none.volatile.i2P(i2* %cmdOut_V, i2 0), !dbg !1289 ; [debug line = 218:10@83:3]
  call void @llvm.dbg.value(metadata !{i1* %full_assign}, i64 0, metadata !39), !dbg !1290 ; [debug line = 85:3] [debug variable = full]
  call void @llvm.dbg.value(metadata !{i1* %full_assign}, i64 0, metadata !39), !dbg !1290 ; [debug line = 85:3] [debug variable = full]
  call void @llvm.dbg.value(metadata !{i1* %full_assign}, i64 0, metadata !39), !dbg !1290 ; [debug line = 85:3] [debug variable = full]
  call void @llvm.dbg.value(metadata !{i1* %full_assign}, i64 0, metadata !39), !dbg !1290 ; [debug line = 85:3] [debug variable = full]
  call void @llvm.dbg.value(metadata !{i1* %full_assign}, i64 0, metadata !39), !dbg !1290 ; [debug line = 85:3] [debug variable = full]
  call void @llvm.dbg.value(metadata !{i1* %full_assign}, i64 0, metadata !39), !dbg !1290 ; [debug line = 85:3] [debug variable = full]
  call void @llvm.dbg.value(metadata !{i1* %full_assign}, i64 0, metadata !39), !dbg !1290 ; [debug line = 85:3] [debug variable = full]
  call void @llvm.dbg.value(metadata !{i1* %full_assign}, i64 0, metadata !39), !dbg !1290 ; [debug line = 85:3] [debug variable = full]
  call void @llvm.dbg.value(metadata !{i1* %full_assign}, i64 0, metadata !39), !dbg !1290 ; [debug line = 85:3] [debug variable = full]
  call void @llvm.dbg.value(metadata !{i1* %full_assign}, i64 0, metadata !39), !dbg !1290 ; [debug line = 85:3] [debug variable = full]
  call void @llvm.dbg.value(metadata !{i1* %full_assign}, i64 0, metadata !39), !dbg !1290 ; [debug line = 85:3] [debug variable = full]
  call void @llvm.dbg.value(metadata !{i1* %full_assign}, i64 0, metadata !39), !dbg !1290 ; [debug line = 85:3] [debug variable = full]
  %full_assign_load_3 = load volatile i1* %full_assign, align 1, !dbg !1290 ; [#uses=1 type=i1] [debug line = 85:3]
  br i1 %full_assign_load_3, label %23, label %18, !dbg !1290 ; [debug line = 85:3]

; <label>:15                                      ; preds = %19
  call void @llvm.dbg.value(metadata !{i2* %cmdOut_V}, i64 0, metadata !1245), !dbg !1291 ; [debug line = 217:49@86:4] [debug variable = ssdm_int<2 + 1024 * 0, false>.V]
  call void @_ssdm_op_Write.ap_none.volatile.i2P(i2* %cmdOut_V, i2 1), !dbg !1294 ; [debug line = 218:10@86:4]
  %tmp_s = sext i32 %i_3_reg2mem to i64, !dbg !1295 ; [#uses=1 type=i64] [debug line = 87:4]
  %random_priorities_addr = getelementptr [200 x i9]* @random_priorities, i64 0, i64 %tmp_s, !dbg !1295 ; [#uses=1 type=i9*] [debug line = 87:4]
  %random_priorities_load = load i9* %random_priorities_addr, align 2, !dbg !1295 ; [#uses=1 type=i9] [debug line = 87:4]
  %tmp_1 = trunc i9 %random_priorities_load to i4, !dbg !1296 ; [#uses=2 type=i4] [debug line = 204:62@204:77@87:4]
  call void @llvm.dbg.value(metadata !{i4* %priorityOut_V}, i64 0, metadata !1254), !dbg !1298 ; [debug line = 217:49@87:4] [debug variable = ssdm_int<4 + 1024 * 0, false>.V]
  call void @_ssdm_op_Write.ap_none.volatile.i4P(i4* %priorityOut_V, i4 %tmp_1), !dbg !1299 ; [debug line = 218:10@87:4]
  br label %19

; <label>:16                                      ; preds = %12
  call void @llvm.dbg.value(metadata !{i2* %cmdOut_V}, i64 0, metadata !1245), !dbg !1291 ; [debug line = 217:49@86:4] [debug variable = ssdm_int<2 + 1024 * 0, false>.V]
  call void @_ssdm_op_Write.ap_none.volatile.i2P(i2* %cmdOut_V, i2 1), !dbg !1294 ; [debug line = 218:10@86:4]
  call void @llvm.dbg.value(metadata !{i4* %priorityOut_V}, i64 0, metadata !1254), !dbg !1298 ; [debug line = 217:49@87:4] [debug variable = ssdm_int<4 + 1024 * 0, false>.V]
  call void @_ssdm_op_Write.ap_none.volatile.i4P(i4* %priorityOut_V, i4 5), !dbg !1299 ; [debug line = 218:10@87:4]
  store i1 %result_1_s, i1* %result, align 1
  br label %.preheader132

; <label>:17                                      ; preds = %13
  call void @llvm.dbg.value(metadata !{i2* %cmdOut_V}, i64 0, metadata !1245), !dbg !1291 ; [debug line = 217:49@86:4] [debug variable = ssdm_int<2 + 1024 * 0, false>.V]
  call void @_ssdm_op_Write.ap_none.volatile.i2P(i2* %cmdOut_V, i2 1), !dbg !1294 ; [debug line = 218:10@86:4]
  call void @llvm.dbg.value(metadata !{i4* %priorityOut_V}, i64 0, metadata !1254), !dbg !1298 ; [debug line = 217:49@87:4] [debug variable = ssdm_int<4 + 1024 * 0, false>.V]
  call void @_ssdm_op_Write.ap_none.volatile.i4P(i4* %priorityOut_V, i4 5), !dbg !1299 ; [debug line = 218:10@87:4]
  br label %.preheader132

; <label>:18                                      ; preds = %14
  call void @llvm.dbg.value(metadata !{i2* %cmdOut_V}, i64 0, metadata !1245), !dbg !1291 ; [debug line = 217:49@86:4] [debug variable = ssdm_int<2 + 1024 * 0, false>.V]
  call void @_ssdm_op_Write.ap_none.volatile.i2P(i2* %cmdOut_V, i2 1), !dbg !1294 ; [debug line = 218:10@86:4]
  call void @llvm.dbg.value(metadata !{i4* %priorityOut_V}, i64 0, metadata !1254), !dbg !1298 ; [debug line = 217:49@87:4] [debug variable = ssdm_int<4 + 1024 * 0, false>.V]
  call void @_ssdm_op_Write.ap_none.volatile.i4P(i4* %priorityOut_V, i4 5), !dbg !1299 ; [debug line = 218:10@87:4]
  br label %.preheader132

.preheader132:                                    ; preds = %18, %17, %16
  %result_load_2 = load i1* %result, align 1      ; [#uses=1 type=i1]
  br label %19, !dbg !1300                        ; [debug line = 88:4]

; <label>:19                                      ; preds = %.preheader132, %15
  %i_3_reg2mem = phi i32 [ %i_1, %15 ], [ 1, %.preheader132 ] ; [#uses=2 type=i32]
  %tmp_6_reg2mem = phi i4 [ %tmp_1, %15 ], [ 5, %.preheader132 ] ; [#uses=1 type=i4]
  call void (...)* @_ssdm_op_Wait(i32 1) nounwind, !dbg !1300 ; [debug line = 88:4]
  call void @llvm.dbg.value(metadata !{i4* %currentPriority_V}, i64 0, metadata !1254), !dbg !1301 ; [debug line = 217:49@89:4] [debug variable = ssdm_int<4 + 1024 * 0, false>.V]
  call void @_ssdm_op_Write.ap_none.volatile.i4P(i4* %currentPriority_V, i4 %tmp_6_reg2mem), !dbg !1303 ; [debug line = 218:10@89:4]
  call void @llvm.dbg.value(metadata !{i1* %full_assign}, i64 0, metadata !39), !dbg !1290 ; [debug line = 85:3] [debug variable = full]
  call void @llvm.dbg.value(metadata !{i1* %full_assign}, i64 0, metadata !39), !dbg !1290 ; [debug line = 85:3] [debug variable = full]
  call void @llvm.dbg.value(metadata !{i1* %full_assign}, i64 0, metadata !39), !dbg !1290 ; [debug line = 85:3] [debug variable = full]
  call void @llvm.dbg.value(metadata !{i1* %full_assign}, i64 0, metadata !39), !dbg !1290 ; [debug line = 85:3] [debug variable = full]
  call void @llvm.dbg.value(metadata !{i1* %full_assign}, i64 0, metadata !39), !dbg !1290 ; [debug line = 85:3] [debug variable = full]
  call void @llvm.dbg.value(metadata !{i1* %full_assign}, i64 0, metadata !39), !dbg !1290 ; [debug line = 85:3] [debug variable = full]
  call void @llvm.dbg.value(metadata !{i1* %full_assign}, i64 0, metadata !39), !dbg !1290 ; [debug line = 85:3] [debug variable = full]
  call void @llvm.dbg.value(metadata !{i1* %full_assign}, i64 0, metadata !39), !dbg !1290 ; [debug line = 85:3] [debug variable = full]
  call void @llvm.dbg.value(metadata !{i1* %full_assign}, i64 0, metadata !39), !dbg !1290 ; [debug line = 85:3] [debug variable = full]
  call void @llvm.dbg.value(metadata !{i1* %full_assign}, i64 0, metadata !39), !dbg !1290 ; [debug line = 85:3] [debug variable = full]
  call void @llvm.dbg.value(metadata !{i1* %full_assign}, i64 0, metadata !39), !dbg !1290 ; [debug line = 85:3] [debug variable = full]
  call void @llvm.dbg.value(metadata !{i1* %full_assign}, i64 0, metadata !39), !dbg !1290 ; [debug line = 85:3] [debug variable = full]
  %full_assign_load_5 = load volatile i1* %full_assign, align 1, !dbg !1290 ; [#uses=1 type=i1] [debug line = 85:3]
  %i_1 = add nsw i32 %i_3_reg2mem, 1, !dbg !1304  ; [#uses=1 type=i32] [debug line = 91:4]
  br i1 %full_assign_load_5, label %20, label %15, !dbg !1290 ; [debug line = 85:3]

; <label>:20                                      ; preds = %19
  call void @llvm.dbg.value(metadata !{i2* %cmdOut_V}, i64 0, metadata !1245), !dbg !1305 ; [debug line = 217:49@93:3] [debug variable = ssdm_int<2 + 1024 * 0, false>.V]
  call void @_ssdm_op_Write.ap_none.volatile.i2P(i2* %cmdOut_V, i2 0), !dbg !1307 ; [debug line = 218:10@93:3]
  call void @llvm.dbg.value(metadata !{i1* %empty_assign}, i64 0, metadata !679), !dbg !1308 ; [debug line = 94:3] [debug variable = empty]
  call void @llvm.dbg.value(metadata !{i1* %empty_assign}, i64 0, metadata !679), !dbg !1308 ; [debug line = 94:3] [debug variable = empty]
  call void @llvm.dbg.value(metadata !{i1* %empty_assign}, i64 0, metadata !679), !dbg !1308 ; [debug line = 94:3] [debug variable = empty]
  call void @llvm.dbg.value(metadata !{i1* %empty_assign}, i64 0, metadata !679), !dbg !1308 ; [debug line = 94:3] [debug variable = empty]
  call void @llvm.dbg.value(metadata !{i1* %empty_assign}, i64 0, metadata !679), !dbg !1308 ; [debug line = 94:3] [debug variable = empty]
  call void @llvm.dbg.value(metadata !{i1* %empty_assign}, i64 0, metadata !679), !dbg !1308 ; [debug line = 94:3] [debug variable = empty]
  call void @llvm.dbg.value(metadata !{i1* %empty_assign}, i64 0, metadata !679), !dbg !1308 ; [debug line = 94:3] [debug variable = empty]
  call void @llvm.dbg.value(metadata !{i1* %empty_assign}, i64 0, metadata !679), !dbg !1308 ; [debug line = 94:3] [debug variable = empty]
  call void @llvm.dbg.value(metadata !{i1* %empty_assign}, i64 0, metadata !679), !dbg !1308 ; [debug line = 94:3] [debug variable = empty]
  call void @llvm.dbg.value(metadata !{i1* %empty_assign}, i64 0, metadata !679), !dbg !1308 ; [debug line = 94:3] [debug variable = empty]
  call void @llvm.dbg.value(metadata !{i1* %empty_assign}, i64 0, metadata !679), !dbg !1308 ; [debug line = 94:3] [debug variable = empty]
  call void @llvm.dbg.value(metadata !{i1* %empty_assign}, i64 0, metadata !679), !dbg !1308 ; [debug line = 94:3] [debug variable = empty]
  %empty_assign_load_6 = load volatile i1* %empty_assign, align 1, !dbg !1308 ; [#uses=1 type=i1] [debug line = 94:3]
  br i1 %empty_assign_load_6, label %31, label %25, !dbg !1308 ; [debug line = 94:3]

; <label>:21                                      ; preds = %12
  call void @llvm.dbg.value(metadata !{i2* %cmdOut_V}, i64 0, metadata !1245), !dbg !1305 ; [debug line = 217:49@93:3] [debug variable = ssdm_int<2 + 1024 * 0, false>.V]
  call void @_ssdm_op_Write.ap_none.volatile.i2P(i2* %cmdOut_V, i2 0), !dbg !1307 ; [debug line = 218:10@93:3]
  call void @llvm.dbg.value(metadata !{i1* %empty_assign}, i64 0, metadata !679), !dbg !1308 ; [debug line = 94:3] [debug variable = empty]
  call void @llvm.dbg.value(metadata !{i1* %empty_assign}, i64 0, metadata !679), !dbg !1308 ; [debug line = 94:3] [debug variable = empty]
  call void @llvm.dbg.value(metadata !{i1* %empty_assign}, i64 0, metadata !679), !dbg !1308 ; [debug line = 94:3] [debug variable = empty]
  call void @llvm.dbg.value(metadata !{i1* %empty_assign}, i64 0, metadata !679), !dbg !1308 ; [debug line = 94:3] [debug variable = empty]
  call void @llvm.dbg.value(metadata !{i1* %empty_assign}, i64 0, metadata !679), !dbg !1308 ; [debug line = 94:3] [debug variable = empty]
  call void @llvm.dbg.value(metadata !{i1* %empty_assign}, i64 0, metadata !679), !dbg !1308 ; [debug line = 94:3] [debug variable = empty]
  call void @llvm.dbg.value(metadata !{i1* %empty_assign}, i64 0, metadata !679), !dbg !1308 ; [debug line = 94:3] [debug variable = empty]
  call void @llvm.dbg.value(metadata !{i1* %empty_assign}, i64 0, metadata !679), !dbg !1308 ; [debug line = 94:3] [debug variable = empty]
  call void @llvm.dbg.value(metadata !{i1* %empty_assign}, i64 0, metadata !679), !dbg !1308 ; [debug line = 94:3] [debug variable = empty]
  call void @llvm.dbg.value(metadata !{i1* %empty_assign}, i64 0, metadata !679), !dbg !1308 ; [debug line = 94:3] [debug variable = empty]
  call void @llvm.dbg.value(metadata !{i1* %empty_assign}, i64 0, metadata !679), !dbg !1308 ; [debug line = 94:3] [debug variable = empty]
  call void @llvm.dbg.value(metadata !{i1* %empty_assign}, i64 0, metadata !679), !dbg !1308 ; [debug line = 94:3] [debug variable = empty]
  %empty_assign_load_5 = load volatile i1* %empty_assign, align 1, !dbg !1308 ; [#uses=1 type=i1] [debug line = 94:3]
  br i1 %empty_assign_load_5, label %32, label %26, !dbg !1308 ; [debug line = 94:3]

; <label>:22                                      ; preds = %13
  call void @llvm.dbg.value(metadata !{i2* %cmdOut_V}, i64 0, metadata !1245), !dbg !1305 ; [debug line = 217:49@93:3] [debug variable = ssdm_int<2 + 1024 * 0, false>.V]
  call void @_ssdm_op_Write.ap_none.volatile.i2P(i2* %cmdOut_V, i2 0), !dbg !1307 ; [debug line = 218:10@93:3]
  call void @llvm.dbg.value(metadata !{i1* %empty_assign}, i64 0, metadata !679), !dbg !1308 ; [debug line = 94:3] [debug variable = empty]
  call void @llvm.dbg.value(metadata !{i1* %empty_assign}, i64 0, metadata !679), !dbg !1308 ; [debug line = 94:3] [debug variable = empty]
  call void @llvm.dbg.value(metadata !{i1* %empty_assign}, i64 0, metadata !679), !dbg !1308 ; [debug line = 94:3] [debug variable = empty]
  call void @llvm.dbg.value(metadata !{i1* %empty_assign}, i64 0, metadata !679), !dbg !1308 ; [debug line = 94:3] [debug variable = empty]
  call void @llvm.dbg.value(metadata !{i1* %empty_assign}, i64 0, metadata !679), !dbg !1308 ; [debug line = 94:3] [debug variable = empty]
  call void @llvm.dbg.value(metadata !{i1* %empty_assign}, i64 0, metadata !679), !dbg !1308 ; [debug line = 94:3] [debug variable = empty]
  call void @llvm.dbg.value(metadata !{i1* %empty_assign}, i64 0, metadata !679), !dbg !1308 ; [debug line = 94:3] [debug variable = empty]
  call void @llvm.dbg.value(metadata !{i1* %empty_assign}, i64 0, metadata !679), !dbg !1308 ; [debug line = 94:3] [debug variable = empty]
  call void @llvm.dbg.value(metadata !{i1* %empty_assign}, i64 0, metadata !679), !dbg !1308 ; [debug line = 94:3] [debug variable = empty]
  call void @llvm.dbg.value(metadata !{i1* %empty_assign}, i64 0, metadata !679), !dbg !1308 ; [debug line = 94:3] [debug variable = empty]
  call void @llvm.dbg.value(metadata !{i1* %empty_assign}, i64 0, metadata !679), !dbg !1308 ; [debug line = 94:3] [debug variable = empty]
  call void @llvm.dbg.value(metadata !{i1* %empty_assign}, i64 0, metadata !679), !dbg !1308 ; [debug line = 94:3] [debug variable = empty]
  %empty_assign_load_1 = load volatile i1* %empty_assign, align 1, !dbg !1308 ; [#uses=1 type=i1] [debug line = 94:3]
  br i1 %empty_assign_load_1, label %33, label %27, !dbg !1308 ; [debug line = 94:3]

; <label>:23                                      ; preds = %14
  call void @llvm.dbg.value(metadata !{i2* %cmdOut_V}, i64 0, metadata !1245), !dbg !1305 ; [debug line = 217:49@93:3] [debug variable = ssdm_int<2 + 1024 * 0, false>.V]
  call void @_ssdm_op_Write.ap_none.volatile.i2P(i2* %cmdOut_V, i2 0), !dbg !1307 ; [debug line = 218:10@93:3]
  call void @llvm.dbg.value(metadata !{i1* %empty_assign}, i64 0, metadata !679), !dbg !1308 ; [debug line = 94:3] [debug variable = empty]
  call void @llvm.dbg.value(metadata !{i1* %empty_assign}, i64 0, metadata !679), !dbg !1308 ; [debug line = 94:3] [debug variable = empty]
  call void @llvm.dbg.value(metadata !{i1* %empty_assign}, i64 0, metadata !679), !dbg !1308 ; [debug line = 94:3] [debug variable = empty]
  call void @llvm.dbg.value(metadata !{i1* %empty_assign}, i64 0, metadata !679), !dbg !1308 ; [debug line = 94:3] [debug variable = empty]
  call void @llvm.dbg.value(metadata !{i1* %empty_assign}, i64 0, metadata !679), !dbg !1308 ; [debug line = 94:3] [debug variable = empty]
  call void @llvm.dbg.value(metadata !{i1* %empty_assign}, i64 0, metadata !679), !dbg !1308 ; [debug line = 94:3] [debug variable = empty]
  call void @llvm.dbg.value(metadata !{i1* %empty_assign}, i64 0, metadata !679), !dbg !1308 ; [debug line = 94:3] [debug variable = empty]
  call void @llvm.dbg.value(metadata !{i1* %empty_assign}, i64 0, metadata !679), !dbg !1308 ; [debug line = 94:3] [debug variable = empty]
  call void @llvm.dbg.value(metadata !{i1* %empty_assign}, i64 0, metadata !679), !dbg !1308 ; [debug line = 94:3] [debug variable = empty]
  call void @llvm.dbg.value(metadata !{i1* %empty_assign}, i64 0, metadata !679), !dbg !1308 ; [debug line = 94:3] [debug variable = empty]
  call void @llvm.dbg.value(metadata !{i1* %empty_assign}, i64 0, metadata !679), !dbg !1308 ; [debug line = 94:3] [debug variable = empty]
  call void @llvm.dbg.value(metadata !{i1* %empty_assign}, i64 0, metadata !679), !dbg !1308 ; [debug line = 94:3] [debug variable = empty]
  %empty_assign_load_3 = load volatile i1* %empty_assign, align 1, !dbg !1308 ; [#uses=1 type=i1] [debug line = 94:3]
  br i1 %empty_assign_load_3, label %34, label %28, !dbg !1308 ; [debug line = 94:3]

; <label>:24                                      ; preds = %29
  call void @llvm.dbg.value(metadata !{i2* %cmdOut_V}, i64 0, metadata !1245), !dbg !1309 ; [debug line = 217:49@95:4] [debug variable = ssdm_int<2 + 1024 * 0, false>.V]
  call void @_ssdm_op_Write.ap_none.volatile.i2P(i2* %cmdOut_V, i2 -2), !dbg !1311 ; [debug line = 218:10@95:4]
  call void @llvm.dbg.value(metadata !{i4 %priorityIn_V}, i64 0, metadata !700), !dbg !719 ; [debug line = 145:83@96:14] [debug variable = op.V]
  call void @llvm.dbg.value(metadata !{i4 %priorityIn_V}, i64 0, metadata !709), !dbg !722 ; [debug line = 145:83@145:105@96:14] [debug variable = op.V]
  br label %29

; <label>:25                                      ; preds = %20
  call void @llvm.dbg.value(metadata !{i2* %cmdOut_V}, i64 0, metadata !1245), !dbg !1309 ; [debug line = 217:49@95:4] [debug variable = ssdm_int<2 + 1024 * 0, false>.V]
  call void @_ssdm_op_Write.ap_none.volatile.i2P(i2* %cmdOut_V, i2 -2), !dbg !1311 ; [debug line = 218:10@95:4]
  call void @llvm.dbg.value(metadata !{i4 %priorityIn_V}, i64 0, metadata !700), !dbg !719 ; [debug line = 145:83@96:14] [debug variable = op.V]
  call void @llvm.dbg.value(metadata !{i4 %priorityIn_V}, i64 0, metadata !709), !dbg !722 ; [debug line = 145:83@145:105@96:14] [debug variable = op.V]
  %ult = icmp ult i32 %last_1, %last_load, !dbg !720 ; [#uses=1 type=i1] [debug line = 96:14]
  %rev = xor i1 %ult, true, !dbg !720             ; [#uses=1 type=i1] [debug line = 96:14]
  %p_result_3 = and i1 %rev, %result_load_2, !dbg !720 ; [#uses=1 type=i1] [debug line = 96:14]
  br label %.preheader

; <label>:26                                      ; preds = %21
  call void @llvm.dbg.value(metadata !{i2* %cmdOut_V}, i64 0, metadata !1245), !dbg !1309 ; [debug line = 217:49@95:4] [debug variable = ssdm_int<2 + 1024 * 0, false>.V]
  call void @_ssdm_op_Write.ap_none.volatile.i2P(i2* %cmdOut_V, i2 -2), !dbg !1311 ; [debug line = 218:10@95:4]
  call void @llvm.dbg.value(metadata !{i4 %priorityIn_V}, i64 0, metadata !700), !dbg !719 ; [debug line = 145:83@96:14] [debug variable = op.V]
  call void @llvm.dbg.value(metadata !{i4 %priorityIn_V}, i64 0, metadata !709), !dbg !722 ; [debug line = 145:83@145:105@96:14] [debug variable = op.V]
  %ult3 = icmp ult i32 %last_1, %last_load, !dbg !720 ; [#uses=1 type=i1] [debug line = 96:14]
  %rev3 = xor i1 %ult3, true, !dbg !720           ; [#uses=1 type=i1] [debug line = 96:14]
  %p_result_2 = and i1 %rev3, %result_1_s, !dbg !720 ; [#uses=1 type=i1] [debug line = 96:14]
  br label %.preheader

; <label>:27                                      ; preds = %22
  call void @llvm.dbg.value(metadata !{i2* %cmdOut_V}, i64 0, metadata !1245), !dbg !1309 ; [debug line = 217:49@95:4] [debug variable = ssdm_int<2 + 1024 * 0, false>.V]
  call void @_ssdm_op_Write.ap_none.volatile.i2P(i2* %cmdOut_V, i2 -2), !dbg !1311 ; [debug line = 218:10@95:4]
  call void @llvm.dbg.value(metadata !{i4 %priorityIn_V}, i64 0, metadata !700), !dbg !719 ; [debug line = 145:83@96:14] [debug variable = op.V]
  call void @llvm.dbg.value(metadata !{i4 %priorityIn_V}, i64 0, metadata !709), !dbg !722 ; [debug line = 145:83@145:105@96:14] [debug variable = op.V]
  %ult1 = icmp ult i32 %last_1, %last_load, !dbg !720 ; [#uses=1 type=i1] [debug line = 96:14]
  %rev1 = xor i1 %ult1, true, !dbg !720           ; [#uses=1 type=i1] [debug line = 96:14]
  %p_result_s = and i1 %rev1, %result_load, !dbg !720 ; [#uses=1 type=i1] [debug line = 96:14]
  br label %.preheader

; <label>:28                                      ; preds = %23
  call void @llvm.dbg.value(metadata !{i2* %cmdOut_V}, i64 0, metadata !1245), !dbg !1309 ; [debug line = 217:49@95:4] [debug variable = ssdm_int<2 + 1024 * 0, false>.V]
  call void @_ssdm_op_Write.ap_none.volatile.i2P(i2* %cmdOut_V, i2 -2), !dbg !1311 ; [debug line = 218:10@95:4]
  call void @llvm.dbg.value(metadata !{i4 %priorityIn_V}, i64 0, metadata !700), !dbg !719 ; [debug line = 145:83@96:14] [debug variable = op.V]
  call void @llvm.dbg.value(metadata !{i4 %priorityIn_V}, i64 0, metadata !709), !dbg !722 ; [debug line = 145:83@145:105@96:14] [debug variable = op.V]
  %ult2 = icmp ult i32 %last_1, %last_load, !dbg !720 ; [#uses=1 type=i1] [debug line = 96:14]
  %rev2 = xor i1 %ult2, true, !dbg !720           ; [#uses=1 type=i1] [debug line = 96:14]
  %p_result_1 = and i1 %rev2, %result_load, !dbg !720 ; [#uses=1 type=i1] [debug line = 96:14]
  br label %.preheader

.preheader:                                       ; preds = %28, %27, %26, %25
  %p_result_3_reg2mem_0_ph = phi i1 [ %p_result_1, %28 ], [ %p_result_s, %27 ], [ %p_result_2, %26 ], [ %p_result_3, %25 ] ; [#uses=1 type=i1]
  br label %29, !dbg !1312                        ; [debug line = 99:4]

; <label>:29                                      ; preds = %.preheader, %24
  call void (...)* @_ssdm_op_Wait(i32 1) nounwind, !dbg !1312 ; [debug line = 99:4]
  call void @llvm.dbg.value(metadata !{i4* %currentPriority_V}, i64 0, metadata !1281), !dbg !1313 ; [debug line = 221:49@100:4] [debug variable = ssdm_int<4 + 1024 * 0, false>.V]
  call void @llvm.dbg.value(metadata !{i4 %priorityIn_V}, i64 0, metadata !714), !dbg !724 ; [debug line = 221:92@100:4] [debug variable = op2.V]
  call void @_ssdm_op_Write.ap_none.volatile.i4P(i4* %currentPriority_V, i4 %priorityIn_V_read), !dbg !1314 ; [debug line = 222:10@100:4]
  call void @llvm.dbg.value(metadata !{i4 %priorityIn_V}, i64 0, metadata !700), !dbg !726 ; [debug line = 145:83@102:11] [debug variable = op.V]
  call void @llvm.dbg.value(metadata !{i4 %priorityIn_V}, i64 0, metadata !709), !dbg !728 ; [debug line = 145:83@145:105@102:11] [debug variable = op.V]
  call void @llvm.dbg.value(metadata !{i32 %last_1}, i64 0, metadata !1240), !dbg !727 ; [debug line = 102:11] [debug variable = last]
  call void @llvm.dbg.value(metadata !{i1* %empty_assign}, i64 0, metadata !679), !dbg !1308 ; [debug line = 94:3] [debug variable = empty]
  call void @llvm.dbg.value(metadata !{i1* %empty_assign}, i64 0, metadata !679), !dbg !1308 ; [debug line = 94:3] [debug variable = empty]
  call void @llvm.dbg.value(metadata !{i1* %empty_assign}, i64 0, metadata !679), !dbg !1308 ; [debug line = 94:3] [debug variable = empty]
  call void @llvm.dbg.value(metadata !{i1* %empty_assign}, i64 0, metadata !679), !dbg !1308 ; [debug line = 94:3] [debug variable = empty]
  call void @llvm.dbg.value(metadata !{i1* %empty_assign}, i64 0, metadata !679), !dbg !1308 ; [debug line = 94:3] [debug variable = empty]
  call void @llvm.dbg.value(metadata !{i1* %empty_assign}, i64 0, metadata !679), !dbg !1308 ; [debug line = 94:3] [debug variable = empty]
  call void @llvm.dbg.value(metadata !{i1* %empty_assign}, i64 0, metadata !679), !dbg !1308 ; [debug line = 94:3] [debug variable = empty]
  call void @llvm.dbg.value(metadata !{i1* %empty_assign}, i64 0, metadata !679), !dbg !1308 ; [debug line = 94:3] [debug variable = empty]
  call void @llvm.dbg.value(metadata !{i1* %empty_assign}, i64 0, metadata !679), !dbg !1308 ; [debug line = 94:3] [debug variable = empty]
  call void @llvm.dbg.value(metadata !{i1* %empty_assign}, i64 0, metadata !679), !dbg !1308 ; [debug line = 94:3] [debug variable = empty]
  call void @llvm.dbg.value(metadata !{i1* %empty_assign}, i64 0, metadata !679), !dbg !1308 ; [debug line = 94:3] [debug variable = empty]
  call void @llvm.dbg.value(metadata !{i1* %empty_assign}, i64 0, metadata !679), !dbg !1308 ; [debug line = 94:3] [debug variable = empty]
  %empty_assign_load_7 = load volatile i1* %empty_assign, align 1, !dbg !1308 ; [#uses=1 type=i1] [debug line = 94:3]
  br i1 %empty_assign_load_7, label %30, label %24, !dbg !1308 ; [debug line = 94:3]

; <label>:30                                      ; preds = %29
  call void @llvm.dbg.value(metadata !{i2* %cmdOut_V}, i64 0, metadata !1245), !dbg !1315 ; [debug line = 217:49@104:3] [debug variable = ssdm_int<2 + 1024 * 0, false>.V]
  call void @_ssdm_op_Write.ap_none.volatile.i2P(i2* %cmdOut_V, i2 0), !dbg !1317 ; [debug line = 218:10@104:3]
  call void @llvm.dbg.value(metadata !{i32 %last_1}, i64 0, metadata !1240), !dbg !727 ; [debug line = 102:11] [debug variable = last]
  store i32 %last_1, i32* %last, align 4, !dbg !727 ; [debug line = 102:11]
  store i1 %p_result_3_reg2mem_0_ph, i1* %result, align 1
  br label %35

; <label>:31                                      ; preds = %20
  call void @llvm.dbg.value(metadata !{i2* %cmdOut_V}, i64 0, metadata !1245), !dbg !1315 ; [debug line = 217:49@104:3] [debug variable = ssdm_int<2 + 1024 * 0, false>.V]
  call void @_ssdm_op_Write.ap_none.volatile.i2P(i2* %cmdOut_V, i2 0), !dbg !1317 ; [debug line = 218:10@104:3]
  br label %35

; <label>:32                                      ; preds = %21
  call void @llvm.dbg.value(metadata !{i2* %cmdOut_V}, i64 0, metadata !1245), !dbg !1315 ; [debug line = 217:49@104:3] [debug variable = ssdm_int<2 + 1024 * 0, false>.V]
  call void @_ssdm_op_Write.ap_none.volatile.i2P(i2* %cmdOut_V, i2 0), !dbg !1317 ; [debug line = 218:10@104:3]
  store i1 %result_1_s, i1* %result, align 1
  br label %35

; <label>:33                                      ; preds = %22
  call void @llvm.dbg.value(metadata !{i2* %cmdOut_V}, i64 0, metadata !1245), !dbg !1315 ; [debug line = 217:49@104:3] [debug variable = ssdm_int<2 + 1024 * 0, false>.V]
  call void @_ssdm_op_Write.ap_none.volatile.i2P(i2* %cmdOut_V, i2 0), !dbg !1317 ; [debug line = 218:10@104:3]
  br label %35

; <label>:34                                      ; preds = %23
  call void @llvm.dbg.value(metadata !{i2* %cmdOut_V}, i64 0, metadata !1245), !dbg !1315 ; [debug line = 217:49@104:3] [debug variable = ssdm_int<2 + 1024 * 0, false>.V]
  call void @_ssdm_op_Write.ap_none.volatile.i2P(i2* %cmdOut_V, i2 0), !dbg !1317 ; [debug line = 218:10@104:3]
  br label %35

; <label>:35                                      ; preds = %34, %33, %32, %31, %30
  %empty_3 = call i32 (...)* @_ssdm_op_SpecRegionEnd([3 x i8]* @p_str4, i32 %tmp_4), !dbg !1318 ; [#uses=0 type=i32] [debug line = 106:2]
  br label %1, !dbg !1319                         ; [debug line = 58:20]

; <label>:36                                      ; preds = %1
  ret i1 %result_load, !dbg !1320                 ; [debug line = 108:2]
}

; [#uses=7]
define weak void @_ssdm_op_SpecWire(...) nounwind {
entry:
  ret void
}

; [#uses=1]
define weak void @_ssdm_op_SpecLoopName(...) nounwind {
entry:
  ret void
}

; [#uses=1]
define weak void @_ssdm_op_SpecProtocol(...) nounwind {
entry:
  ret void
}

; [#uses=4]
define weak void @_ssdm_op_Wait(...) nounwind {
entry:
  ret void
}

; [#uses=289]
declare void @llvm.dbg.value(metadata, i64, metadata) nounwind readnone

; [#uses=1]
define weak void @_ssdm_op_SpecTopModule(...) {
entry:
  ret void
}

; [#uses=7]
define weak void @_ssdm_op_SpecBitsMap(...) {
entry:
  ret void
}

; [#uses=1]
declare void @_GLOBAL__I_a() nounwind section ".text.startup"

; [#uses=1]
define weak i32 @_ssdm_op_SpecRegionBegin(...) {
entry:
  ret i32 0
}

; [#uses=1]
define weak i32 @_ssdm_op_SpecRegionEnd(...) {
entry:
  ret i32 0
}

; [#uses=2]
define weak void @_ssdm_op_SpecIFCore(...) {
entry:
  ret void
}

; [#uses=1]
define weak i32 @_ssdm_op_SpecLoopTripCount(...) {
entry:
  ret i32 0
}

; [#uses=1]
define weak i4 @_ssdm_op_Read.ap_none.i4(i4) {
entry:
  ret i4 %0
}

; [#uses=2]
define weak i1 @_ssdm_op_Read.ap_none.i1(i1) {
entry:
  ret i1 %0
}

; [#uses=10]
define weak void @_ssdm_op_Write.ap_none.volatile.i4P(i4*, i4) {
entry:
  store i4 %1, i4* %0
  ret void
}

; [#uses=28]
define weak void @_ssdm_op_Write.ap_none.volatile.i2P(i2*, i2) {
entry:
  store i2 %1, i2* %0
  ret void
}

; [#uses=0]
declare i4 @_ssdm_op_PartSelect.i4.i32.i32.i32(i32, i32, i32) nounwind readnone

; [#uses=0]
declare i4 @_ssdm_op_PartSelect.i4.i9.i32.i32(i9, i32, i32) nounwind readnone

!llvm.map.gv = !{!0}

!0 = metadata !{metadata !1, [1 x i32]* @llvm_global_ctors_0}
!1 = metadata !{metadata !2}
!2 = metadata !{i32 0, i32 31, metadata !3}
!3 = metadata !{metadata !4}
!4 = metadata !{metadata !"llvm.global_ctors.0", metadata !5, metadata !""}
!5 = metadata !{metadata !6}
!6 = metadata !{i32 0, i32 0, i32 1}
!7 = metadata !{metadata !8}
!8 = metadata !{i32 0, i32 3, metadata !9}
!9 = metadata !{metadata !10}
!10 = metadata !{metadata !"priorityOut.V", metadata !5, metadata !"uint4"}
!11 = metadata !{metadata !12}
!12 = metadata !{i32 0, i32 3, metadata !13}
!13 = metadata !{metadata !14}
!14 = metadata !{metadata !"priorityIn.V", metadata !15, metadata !"uint4"}
!15 = metadata !{metadata !16}
!16 = metadata !{i32 0, i32 0, i32 0}
!17 = metadata !{metadata !18}
!18 = metadata !{i32 0, i32 1, metadata !19}
!19 = metadata !{metadata !20}
!20 = metadata !{metadata !"cmdOut.V", metadata !5, metadata !"uint2"}
!21 = metadata !{metadata !22}
!22 = metadata !{i32 0, i32 0, metadata !23}
!23 = metadata !{metadata !24}
!24 = metadata !{metadata !"empty", metadata !15, metadata !"bool"}
!25 = metadata !{metadata !26}
!26 = metadata !{i32 0, i32 0, metadata !27}
!27 = metadata !{metadata !28}
!28 = metadata !{metadata !"full", metadata !15, metadata !"bool"}
!29 = metadata !{metadata !30}
!30 = metadata !{i32 0, i32 3, metadata !31}
!31 = metadata !{metadata !32}
!32 = metadata !{metadata !"currentPriority.V", metadata !5, metadata !"uint4"}
!33 = metadata !{metadata !34}
!34 = metadata !{i32 0, i32 0, metadata !35}
!35 = metadata !{metadata !36}
!36 = metadata !{metadata !"return", metadata !37, metadata !"bool"}
!37 = metadata !{metadata !38}
!38 = metadata !{i32 0, i32 1, i32 0}
!39 = metadata !{i32 786689, metadata !40, metadata !"full", metadata !41, i32 83886116, metadata !677, i32 0, i32 0} ; [ DW_TAG_arg_variable ]
!40 = metadata !{i32 786478, i32 0, metadata !41, metadata !"runQueue", metadata !"runQueue", metadata !"_Z8runQueuePV7ap_uintILi4EES0_PVS_ILi2EEbbS2_", metadata !41, i32 35, metadata !42, i1 false, i1 true, i32 0, i32 0, null, i32 256, i1 false, null, null, null, metadata !65, i32 36} ; [ DW_TAG_subprogram ]
!41 = metadata !{i32 786473, metadata !"CAV_MidtermPriorityQueue_Verilog_Runner/source/priorityQueueMidterm_Verilog_Runner.cpp", metadata !"/home/michael/ecen5139_final_project", null} ; [ DW_TAG_file_type ]
!42 = metadata !{i32 786453, i32 0, metadata !"", i32 0, i32 0, i64 0, i64 0, i64 0, i32 0, null, metadata !43, i32 0, i32 0} ; [ DW_TAG_subroutine_type ]
!43 = metadata !{metadata !44, metadata !45, metadata !46, metadata !367, metadata !677, metadata !677, metadata !45}
!44 = metadata !{i32 786468, null, metadata !"bool", null, i32 0, i64 8, i64 8, i64 0, i32 0, i32 2} ; [ DW_TAG_base_type ]
!45 = metadata !{i32 786447, null, metadata !"", null, i32 0, i64 64, i64 64, i64 0, i32 0, metadata !46} ; [ DW_TAG_pointer_type ]
!46 = metadata !{i32 786485, null, metadata !"", null, i32 0, i64 0, i64 0, i64 0, i32 0, metadata !47} ; [ DW_TAG_volatile_type ]
!47 = metadata !{i32 786454, null, metadata !"uint_4", metadata !41, i32 19, i64 0, i64 0, i64 0, i32 0, metadata !48} ; [ DW_TAG_typedef ]
!48 = metadata !{i32 786434, null, metadata !"ap_uint<4>", metadata !49, i32 134, i64 8, i64 8, i32 0, i32 0, null, metadata !50, i32 0, null, metadata !366} ; [ DW_TAG_class_type ]
!49 = metadata !{i32 786473, metadata !"/Xilinx/Vivado_HLS/2014.1/common/technology/autopilot/ap_int.h", metadata !"/home/michael/ecen5139_final_project", null} ; [ DW_TAG_file_type ]
!50 = metadata !{metadata !51, metadata !295, metadata !299, metadata !304, metadata !305, metadata !308, metadata !311, metadata !314, metadata !317, metadata !320, metadata !323, metadata !326, metadata !329, metadata !332, metadata !335, metadata !338, metadata !341, metadata !344, metadata !347, metadata !350, metadata !353, metadata !358, metadata !359, metadata !362, metadata !363, metadata !364, metadata !364}
!51 = metadata !{i32 786460, metadata !48, null, metadata !49, i32 0, i64 0, i64 0, i64 0, i32 0, metadata !52} ; [ DW_TAG_inheritance ]
!52 = metadata !{i32 786434, null, metadata !"ap_int_base<4, false, true>", metadata !53, i32 1302, i64 8, i64 8, i32 0, i32 0, null, metadata !54, i32 0, null, metadata !293} ; [ DW_TAG_class_type ]
!53 = metadata !{i32 786473, metadata !"/Xilinx/Vivado_HLS/2014.1/common/technology/autopilot/ap_int_syn.h", metadata !"/home/michael/ecen5139_final_project", null} ; [ DW_TAG_file_type ]
!54 = metadata !{metadata !55, metadata !71, metadata !75, metadata !82, metadata !83, metadata !86, metadata !90, metadata !94, metadata !98, metadata !102, metadata !105, metadata !109, metadata !113, metadata !117, metadata !122, metadata !127, metadata !131, metadata !135, metadata !141, metadata !144, metadata !149, metadata !152, metadata !153, metadata !154, metadata !157, metadata !158, metadata !161, metadata !164, metadata !167, metadata !170, metadata !180, metadata !183, metadata !186, metadata !189, metadata !192, metadata !195, metadata !198, metadata !201, metadata !204, metadata !205, metadata !210, metadata !213, metadata !214, metadata !215, metadata !216, metadata !217, metadata !218, metadata !221, metadata !222, metadata !225, metadata !226, metadata !227, metadata !228, metadata !229, metadata !230, metadata !233, metadata !234, metadata !235, metadata !238, metadata !239, metadata !242, metadata !243, metadata !247, metadata !251, metadata !252, metadata !255, metadata !256, metadata !260, metadata !261, metadata !262, metadata !263, metadata !266, metadata !267, metadata !268, metadata !269, metadata !270, metadata !271, metadata !272, metadata !273, metadata !274, metadata !275, metadata !276, metadata !277, metadata !287, metadata !290}
!55 = metadata !{i32 786460, metadata !52, null, metadata !53, i32 0, i64 0, i64 0, i64 0, i32 0, metadata !56} ; [ DW_TAG_inheritance ]
!56 = metadata !{i32 786434, null, metadata !"ssdm_int<4 + 1024 * 0, false>", metadata !57, i32 6, i64 8, i64 8, i32 0, i32 0, null, metadata !58, i32 0, null, metadata !67} ; [ DW_TAG_class_type ]
!57 = metadata !{i32 786473, metadata !"/Xilinx/Vivado_HLS/2014.1/common/technology/autopilot/etc/autopilot_dt.def", metadata !"/home/michael/ecen5139_final_project", null} ; [ DW_TAG_file_type ]
!58 = metadata !{metadata !59, metadata !61}
!59 = metadata !{i32 786445, metadata !56, metadata !"V", metadata !57, i32 6, i64 4, i64 4, i64 0, i32 0, metadata !60} ; [ DW_TAG_member ]
!60 = metadata !{i32 786468, null, metadata !"uint4", null, i32 0, i64 4, i64 4, i64 0, i32 0, i32 7} ; [ DW_TAG_base_type ]
!61 = metadata !{i32 786478, i32 0, metadata !56, metadata !"ssdm_int", metadata !"ssdm_int", metadata !"", metadata !57, i32 6, metadata !62, i1 false, i1 false, i32 0, i32 0, null, i32 256, i1 false, null, null, i32 0, metadata !65, i32 6} ; [ DW_TAG_subprogram ]
!62 = metadata !{i32 786453, i32 0, metadata !"", i32 0, i32 0, i64 0, i64 0, i64 0, i32 0, null, metadata !63, i32 0, i32 0} ; [ DW_TAG_subroutine_type ]
!63 = metadata !{null, metadata !64}
!64 = metadata !{i32 786447, i32 0, metadata !"", i32 0, i32 0, i64 64, i64 64, i64 0, i32 64, metadata !56} ; [ DW_TAG_pointer_type ]
!65 = metadata !{metadata !66}
!66 = metadata !{i32 786468}                      ; [ DW_TAG_base_type ]
!67 = metadata !{metadata !68, metadata !70}
!68 = metadata !{i32 786480, null, metadata !"_AP_N", metadata !69, i64 4, null, i32 0, i32 0} ; [ DW_TAG_template_value_parameter ]
!69 = metadata !{i32 786468, null, metadata !"int", null, i32 0, i64 32, i64 32, i64 0, i32 0, i32 5} ; [ DW_TAG_base_type ]
!70 = metadata !{i32 786480, null, metadata !"_AP_S", metadata !44, i64 0, null, i32 0, i32 0} ; [ DW_TAG_template_value_parameter ]
!71 = metadata !{i32 786478, i32 0, metadata !52, metadata !"ap_int_base", metadata !"ap_int_base", metadata !"", metadata !53, i32 1340, metadata !72, i1 false, i1 false, i32 0, i32 0, null, i32 256, i1 false, null, null, i32 0, metadata !65, i32 1340} ; [ DW_TAG_subprogram ]
!72 = metadata !{i32 786453, i32 0, metadata !"", i32 0, i32 0, i64 0, i64 0, i64 0, i32 0, null, metadata !73, i32 0, i32 0} ; [ DW_TAG_subroutine_type ]
!73 = metadata !{null, metadata !74}
!74 = metadata !{i32 786447, i32 0, metadata !"", i32 0, i32 0, i64 64, i64 64, i64 0, i32 64, metadata !52} ; [ DW_TAG_pointer_type ]
!75 = metadata !{i32 786478, i32 0, metadata !52, metadata !"ap_int_base<4, false>", metadata !"ap_int_base<4, false>", metadata !"", metadata !53, i32 1352, metadata !76, i1 false, i1 false, i32 0, i32 0, null, i32 256, i1 false, null, metadata !79, i32 0, metadata !65, i32 1352} ; [ DW_TAG_subprogram ]
!76 = metadata !{i32 786453, i32 0, metadata !"", i32 0, i32 0, i64 0, i64 0, i64 0, i32 0, null, metadata !77, i32 0, i32 0} ; [ DW_TAG_subroutine_type ]
!77 = metadata !{null, metadata !74, metadata !78}
!78 = metadata !{i32 786448, null, null, null, i32 0, i64 0, i64 0, i64 0, i32 0, metadata !52} ; [ DW_TAG_reference_type ]
!79 = metadata !{metadata !80, metadata !81}
!80 = metadata !{i32 786480, null, metadata !"_AP_W2", metadata !69, i64 4, null, i32 0, i32 0} ; [ DW_TAG_template_value_parameter ]
!81 = metadata !{i32 786480, null, metadata !"_AP_S2", metadata !44, i64 0, null, i32 0, i32 0} ; [ DW_TAG_template_value_parameter ]
!82 = metadata !{i32 786478, i32 0, metadata !52, metadata !"ap_int_base<4, false>", metadata !"ap_int_base<4, false>", metadata !"", metadata !53, i32 1355, metadata !76, i1 false, i1 false, i32 0, i32 0, null, i32 256, i1 false, null, metadata !79, i32 0, metadata !65, i32 1355} ; [ DW_TAG_subprogram ]
!83 = metadata !{i32 786478, i32 0, metadata !52, metadata !"ap_int_base", metadata !"ap_int_base", metadata !"", metadata !53, i32 1362, metadata !84, i1 false, i1 false, i32 0, i32 0, null, i32 384, i1 false, null, null, i32 0, metadata !65, i32 1362} ; [ DW_TAG_subprogram ]
!84 = metadata !{i32 786453, i32 0, metadata !"", i32 0, i32 0, i64 0, i64 0, i64 0, i32 0, null, metadata !85, i32 0, i32 0} ; [ DW_TAG_subroutine_type ]
!85 = metadata !{null, metadata !74, metadata !44}
!86 = metadata !{i32 786478, i32 0, metadata !52, metadata !"ap_int_base", metadata !"ap_int_base", metadata !"", metadata !53, i32 1363, metadata !87, i1 false, i1 false, i32 0, i32 0, null, i32 384, i1 false, null, null, i32 0, metadata !65, i32 1363} ; [ DW_TAG_subprogram ]
!87 = metadata !{i32 786453, i32 0, metadata !"", i32 0, i32 0, i64 0, i64 0, i64 0, i32 0, null, metadata !88, i32 0, i32 0} ; [ DW_TAG_subroutine_type ]
!88 = metadata !{null, metadata !74, metadata !89}
!89 = metadata !{i32 786468, null, metadata !"signed char", null, i32 0, i64 8, i64 8, i64 0, i32 0, i32 6} ; [ DW_TAG_base_type ]
!90 = metadata !{i32 786478, i32 0, metadata !52, metadata !"ap_int_base", metadata !"ap_int_base", metadata !"", metadata !53, i32 1364, metadata !91, i1 false, i1 false, i32 0, i32 0, null, i32 384, i1 false, null, null, i32 0, metadata !65, i32 1364} ; [ DW_TAG_subprogram ]
!91 = metadata !{i32 786453, i32 0, metadata !"", i32 0, i32 0, i64 0, i64 0, i64 0, i32 0, null, metadata !92, i32 0, i32 0} ; [ DW_TAG_subroutine_type ]
!92 = metadata !{null, metadata !74, metadata !93}
!93 = metadata !{i32 786468, null, metadata !"unsigned char", null, i32 0, i64 8, i64 8, i64 0, i32 0, i32 8} ; [ DW_TAG_base_type ]
!94 = metadata !{i32 786478, i32 0, metadata !52, metadata !"ap_int_base", metadata !"ap_int_base", metadata !"", metadata !53, i32 1365, metadata !95, i1 false, i1 false, i32 0, i32 0, null, i32 384, i1 false, null, null, i32 0, metadata !65, i32 1365} ; [ DW_TAG_subprogram ]
!95 = metadata !{i32 786453, i32 0, metadata !"", i32 0, i32 0, i64 0, i64 0, i64 0, i32 0, null, metadata !96, i32 0, i32 0} ; [ DW_TAG_subroutine_type ]
!96 = metadata !{null, metadata !74, metadata !97}
!97 = metadata !{i32 786468, null, metadata !"short", null, i32 0, i64 16, i64 16, i64 0, i32 0, i32 5} ; [ DW_TAG_base_type ]
!98 = metadata !{i32 786478, i32 0, metadata !52, metadata !"ap_int_base", metadata !"ap_int_base", metadata !"", metadata !53, i32 1366, metadata !99, i1 false, i1 false, i32 0, i32 0, null, i32 384, i1 false, null, null, i32 0, metadata !65, i32 1366} ; [ DW_TAG_subprogram ]
!99 = metadata !{i32 786453, i32 0, metadata !"", i32 0, i32 0, i64 0, i64 0, i64 0, i32 0, null, metadata !100, i32 0, i32 0} ; [ DW_TAG_subroutine_type ]
!100 = metadata !{null, metadata !74, metadata !101}
!101 = metadata !{i32 786468, null, metadata !"unsigned short", null, i32 0, i64 16, i64 16, i64 0, i32 0, i32 7} ; [ DW_TAG_base_type ]
!102 = metadata !{i32 786478, i32 0, metadata !52, metadata !"ap_int_base", metadata !"ap_int_base", metadata !"", metadata !53, i32 1367, metadata !103, i1 false, i1 false, i32 0, i32 0, null, i32 384, i1 false, null, null, i32 0, metadata !65, i32 1367} ; [ DW_TAG_subprogram ]
!103 = metadata !{i32 786453, i32 0, metadata !"", i32 0, i32 0, i64 0, i64 0, i64 0, i32 0, null, metadata !104, i32 0, i32 0} ; [ DW_TAG_subroutine_type ]
!104 = metadata !{null, metadata !74, metadata !69}
!105 = metadata !{i32 786478, i32 0, metadata !52, metadata !"ap_int_base", metadata !"ap_int_base", metadata !"", metadata !53, i32 1368, metadata !106, i1 false, i1 false, i32 0, i32 0, null, i32 384, i1 false, null, null, i32 0, metadata !65, i32 1368} ; [ DW_TAG_subprogram ]
!106 = metadata !{i32 786453, i32 0, metadata !"", i32 0, i32 0, i64 0, i64 0, i64 0, i32 0, null, metadata !107, i32 0, i32 0} ; [ DW_TAG_subroutine_type ]
!107 = metadata !{null, metadata !74, metadata !108}
!108 = metadata !{i32 786468, null, metadata !"unsigned int", null, i32 0, i64 32, i64 32, i64 0, i32 0, i32 7} ; [ DW_TAG_base_type ]
!109 = metadata !{i32 786478, i32 0, metadata !52, metadata !"ap_int_base", metadata !"ap_int_base", metadata !"", metadata !53, i32 1369, metadata !110, i1 false, i1 false, i32 0, i32 0, null, i32 384, i1 false, null, null, i32 0, metadata !65, i32 1369} ; [ DW_TAG_subprogram ]
!110 = metadata !{i32 786453, i32 0, metadata !"", i32 0, i32 0, i64 0, i64 0, i64 0, i32 0, null, metadata !111, i32 0, i32 0} ; [ DW_TAG_subroutine_type ]
!111 = metadata !{null, metadata !74, metadata !112}
!112 = metadata !{i32 786468, null, metadata !"long int", null, i32 0, i64 64, i64 64, i64 0, i32 0, i32 5} ; [ DW_TAG_base_type ]
!113 = metadata !{i32 786478, i32 0, metadata !52, metadata !"ap_int_base", metadata !"ap_int_base", metadata !"", metadata !53, i32 1370, metadata !114, i1 false, i1 false, i32 0, i32 0, null, i32 384, i1 false, null, null, i32 0, metadata !65, i32 1370} ; [ DW_TAG_subprogram ]
!114 = metadata !{i32 786453, i32 0, metadata !"", i32 0, i32 0, i64 0, i64 0, i64 0, i32 0, null, metadata !115, i32 0, i32 0} ; [ DW_TAG_subroutine_type ]
!115 = metadata !{null, metadata !74, metadata !116}
!116 = metadata !{i32 786468, null, metadata !"long unsigned int", null, i32 0, i64 64, i64 64, i64 0, i32 0, i32 7} ; [ DW_TAG_base_type ]
!117 = metadata !{i32 786478, i32 0, metadata !52, metadata !"ap_int_base", metadata !"ap_int_base", metadata !"", metadata !53, i32 1371, metadata !118, i1 false, i1 false, i32 0, i32 0, null, i32 384, i1 false, null, null, i32 0, metadata !65, i32 1371} ; [ DW_TAG_subprogram ]
!118 = metadata !{i32 786453, i32 0, metadata !"", i32 0, i32 0, i64 0, i64 0, i64 0, i32 0, null, metadata !119, i32 0, i32 0} ; [ DW_TAG_subroutine_type ]
!119 = metadata !{null, metadata !74, metadata !120}
!120 = metadata !{i32 786454, null, metadata !"ap_slong", metadata !53, i32 66, i64 0, i64 0, i64 0, i32 0, metadata !121} ; [ DW_TAG_typedef ]
!121 = metadata !{i32 786468, null, metadata !"long long int", null, i32 0, i64 64, i64 64, i64 0, i32 0, i32 5} ; [ DW_TAG_base_type ]
!122 = metadata !{i32 786478, i32 0, metadata !52, metadata !"ap_int_base", metadata !"ap_int_base", metadata !"", metadata !53, i32 1372, metadata !123, i1 false, i1 false, i32 0, i32 0, null, i32 384, i1 false, null, null, i32 0, metadata !65, i32 1372} ; [ DW_TAG_subprogram ]
!123 = metadata !{i32 786453, i32 0, metadata !"", i32 0, i32 0, i64 0, i64 0, i64 0, i32 0, null, metadata !124, i32 0, i32 0} ; [ DW_TAG_subroutine_type ]
!124 = metadata !{null, metadata !74, metadata !125}
!125 = metadata !{i32 786454, null, metadata !"ap_ulong", metadata !53, i32 65, i64 0, i64 0, i64 0, i32 0, metadata !126} ; [ DW_TAG_typedef ]
!126 = metadata !{i32 786468, null, metadata !"long long unsigned int", null, i32 0, i64 64, i64 64, i64 0, i32 0, i32 7} ; [ DW_TAG_base_type ]
!127 = metadata !{i32 786478, i32 0, metadata !52, metadata !"ap_int_base", metadata !"ap_int_base", metadata !"", metadata !53, i32 1373, metadata !128, i1 false, i1 false, i32 0, i32 0, null, i32 384, i1 false, null, null, i32 0, metadata !65, i32 1373} ; [ DW_TAG_subprogram ]
!128 = metadata !{i32 786453, i32 0, metadata !"", i32 0, i32 0, i64 0, i64 0, i64 0, i32 0, null, metadata !129, i32 0, i32 0} ; [ DW_TAG_subroutine_type ]
!129 = metadata !{null, metadata !74, metadata !130}
!130 = metadata !{i32 786468, null, metadata !"float", null, i32 0, i64 32, i64 32, i64 0, i32 0, i32 4} ; [ DW_TAG_base_type ]
!131 = metadata !{i32 786478, i32 0, metadata !52, metadata !"ap_int_base", metadata !"ap_int_base", metadata !"", metadata !53, i32 1374, metadata !132, i1 false, i1 false, i32 0, i32 0, null, i32 384, i1 false, null, null, i32 0, metadata !65, i32 1374} ; [ DW_TAG_subprogram ]
!132 = metadata !{i32 786453, i32 0, metadata !"", i32 0, i32 0, i64 0, i64 0, i64 0, i32 0, null, metadata !133, i32 0, i32 0} ; [ DW_TAG_subroutine_type ]
!133 = metadata !{null, metadata !74, metadata !134}
!134 = metadata !{i32 786468, null, metadata !"double", null, i32 0, i64 64, i64 64, i64 0, i32 0, i32 4} ; [ DW_TAG_base_type ]
!135 = metadata !{i32 786478, i32 0, metadata !52, metadata !"ap_int_base", metadata !"ap_int_base", metadata !"", metadata !53, i32 1401, metadata !136, i1 false, i1 false, i32 0, i32 0, null, i32 256, i1 false, null, null, i32 0, metadata !65, i32 1401} ; [ DW_TAG_subprogram ]
!136 = metadata !{i32 786453, i32 0, metadata !"", i32 0, i32 0, i64 0, i64 0, i64 0, i32 0, null, metadata !137, i32 0, i32 0} ; [ DW_TAG_subroutine_type ]
!137 = metadata !{null, metadata !74, metadata !138}
!138 = metadata !{i32 786447, null, metadata !"", null, i32 0, i64 64, i64 64, i64 0, i32 0, metadata !139} ; [ DW_TAG_pointer_type ]
!139 = metadata !{i32 786470, null, metadata !"", null, i32 0, i64 0, i64 0, i64 0, i32 0, metadata !140} ; [ DW_TAG_const_type ]
!140 = metadata !{i32 786468, null, metadata !"char", null, i32 0, i64 8, i64 8, i64 0, i32 0, i32 6} ; [ DW_TAG_base_type ]
!141 = metadata !{i32 786478, i32 0, metadata !52, metadata !"ap_int_base", metadata !"ap_int_base", metadata !"", metadata !53, i32 1408, metadata !142, i1 false, i1 false, i32 0, i32 0, null, i32 256, i1 false, null, null, i32 0, metadata !65, i32 1408} ; [ DW_TAG_subprogram ]
!142 = metadata !{i32 786453, i32 0, metadata !"", i32 0, i32 0, i64 0, i64 0, i64 0, i32 0, null, metadata !143, i32 0, i32 0} ; [ DW_TAG_subroutine_type ]
!143 = metadata !{null, metadata !74, metadata !138, metadata !89}
!144 = metadata !{i32 786478, i32 0, metadata !52, metadata !"read", metadata !"read", metadata !"_ZNV11ap_int_baseILi4ELb0ELb1EE4readEv", metadata !53, i32 1429, metadata !145, i1 false, i1 false, i32 0, i32 0, null, i32 256, i1 false, null, null, i32 0, metadata !65, i32 1429} ; [ DW_TAG_subprogram ]
!145 = metadata !{i32 786453, i32 0, metadata !"", i32 0, i32 0, i64 0, i64 0, i64 0, i32 0, null, metadata !146, i32 0, i32 0} ; [ DW_TAG_subroutine_type ]
!146 = metadata !{metadata !52, metadata !147}
!147 = metadata !{i32 786447, i32 0, metadata !"", i32 0, i32 0, i64 64, i64 64, i64 0, i32 64, metadata !148} ; [ DW_TAG_pointer_type ]
!148 = metadata !{i32 786485, null, metadata !"", null, i32 0, i64 0, i64 0, i64 0, i32 0, metadata !52} ; [ DW_TAG_volatile_type ]
!149 = metadata !{i32 786478, i32 0, metadata !52, metadata !"write", metadata !"write", metadata !"_ZNV11ap_int_baseILi4ELb0ELb1EE5writeERKS0_", metadata !53, i32 1435, metadata !150, i1 false, i1 false, i32 0, i32 0, null, i32 256, i1 false, null, null, i32 0, metadata !65, i32 1435} ; [ DW_TAG_subprogram ]
!150 = metadata !{i32 786453, i32 0, metadata !"", i32 0, i32 0, i64 0, i64 0, i64 0, i32 0, null, metadata !151, i32 0, i32 0} ; [ DW_TAG_subroutine_type ]
!151 = metadata !{null, metadata !147, metadata !78}
!152 = metadata !{i32 786478, i32 0, metadata !52, metadata !"operator=", metadata !"operator=", metadata !"_ZNV11ap_int_baseILi4ELb0ELb1EEaSERVKS0_", metadata !53, i32 1447, metadata !150, i1 false, i1 false, i32 0, i32 0, null, i32 256, i1 false, null, null, i32 0, metadata !65, i32 1447} ; [ DW_TAG_subprogram ]
!153 = metadata !{i32 786478, i32 0, metadata !52, metadata !"operator=", metadata !"operator=", metadata !"_ZNV11ap_int_baseILi4ELb0ELb1EEaSERKS0_", metadata !53, i32 1456, metadata !150, i1 false, i1 false, i32 0, i32 0, null, i32 256, i1 false, null, null, i32 0, metadata !65, i32 1456} ; [ DW_TAG_subprogram ]
!154 = metadata !{i32 786478, i32 0, metadata !52, metadata !"operator=", metadata !"operator=", metadata !"_ZN11ap_int_baseILi4ELb0ELb1EEaSERVKS0_", metadata !53, i32 1479, metadata !155, i1 false, i1 false, i32 0, i32 0, null, i32 256, i1 false, null, null, i32 0, metadata !65, i32 1479} ; [ DW_TAG_subprogram ]
!155 = metadata !{i32 786453, i32 0, metadata !"", i32 0, i32 0, i64 0, i64 0, i64 0, i32 0, null, metadata !156, i32 0, i32 0} ; [ DW_TAG_subroutine_type ]
!156 = metadata !{metadata !78, metadata !74, metadata !78}
!157 = metadata !{i32 786478, i32 0, metadata !52, metadata !"operator=", metadata !"operator=", metadata !"_ZN11ap_int_baseILi4ELb0ELb1EEaSERKS0_", metadata !53, i32 1484, metadata !155, i1 false, i1 false, i32 0, i32 0, null, i32 256, i1 false, null, null, i32 0, metadata !65, i32 1484} ; [ DW_TAG_subprogram ]
!158 = metadata !{i32 786478, i32 0, metadata !52, metadata !"operator=", metadata !"operator=", metadata !"_ZN11ap_int_baseILi4ELb0ELb1EEaSEPKc", metadata !53, i32 1488, metadata !159, i1 false, i1 false, i32 0, i32 0, null, i32 256, i1 false, null, null, i32 0, metadata !65, i32 1488} ; [ DW_TAG_subprogram ]
!159 = metadata !{i32 786453, i32 0, metadata !"", i32 0, i32 0, i64 0, i64 0, i64 0, i32 0, null, metadata !160, i32 0, i32 0} ; [ DW_TAG_subroutine_type ]
!160 = metadata !{metadata !78, metadata !74, metadata !138}
!161 = metadata !{i32 786478, i32 0, metadata !52, metadata !"set", metadata !"set", metadata !"_ZN11ap_int_baseILi4ELb0ELb1EE3setEPKca", metadata !53, i32 1496, metadata !162, i1 false, i1 false, i32 0, i32 0, null, i32 256, i1 false, null, null, i32 0, metadata !65, i32 1496} ; [ DW_TAG_subprogram ]
!162 = metadata !{i32 786453, i32 0, metadata !"", i32 0, i32 0, i64 0, i64 0, i64 0, i32 0, null, metadata !163, i32 0, i32 0} ; [ DW_TAG_subroutine_type ]
!163 = metadata !{metadata !78, metadata !74, metadata !138, metadata !89}
!164 = metadata !{i32 786478, i32 0, metadata !52, metadata !"operator=", metadata !"operator=", metadata !"_ZN11ap_int_baseILi4ELb0ELb1EEaSEy", metadata !53, i32 1505, metadata !165, i1 false, i1 false, i32 0, i32 0, null, i32 256, i1 false, null, null, i32 0, metadata !65, i32 1505} ; [ DW_TAG_subprogram ]
!165 = metadata !{i32 786453, i32 0, metadata !"", i32 0, i32 0, i64 0, i64 0, i64 0, i32 0, null, metadata !166, i32 0, i32 0} ; [ DW_TAG_subroutine_type ]
!166 = metadata !{metadata !78, metadata !74, metadata !126}
!167 = metadata !{i32 786478, i32 0, metadata !52, metadata !"operator=", metadata !"operator=", metadata !"_ZN11ap_int_baseILi4ELb0ELb1EEaSEx", metadata !53, i32 1510, metadata !168, i1 false, i1 false, i32 0, i32 0, null, i32 256, i1 false, null, null, i32 0, metadata !65, i32 1510} ; [ DW_TAG_subprogram ]
!168 = metadata !{i32 786453, i32 0, metadata !"", i32 0, i32 0, i64 0, i64 0, i64 0, i32 0, null, metadata !169, i32 0, i32 0} ; [ DW_TAG_subroutine_type ]
!169 = metadata !{metadata !78, metadata !74, metadata !121}
!170 = metadata !{i32 786478, i32 0, metadata !52, metadata !"operator unsigned long long", metadata !"operator unsigned long long", metadata !"_ZNK11ap_int_baseILi4ELb0ELb1EEcvyEv", metadata !53, i32 1551, metadata !171, i1 false, i1 false, i32 0, i32 0, null, i32 256, i1 false, null, null, i32 0, metadata !65, i32 1551} ; [ DW_TAG_subprogram ]
!171 = metadata !{i32 786453, i32 0, metadata !"", i32 0, i32 0, i64 0, i64 0, i64 0, i32 0, null, metadata !172, i32 0, i32 0} ; [ DW_TAG_subroutine_type ]
!172 = metadata !{metadata !173, metadata !178}
!173 = metadata !{i32 786454, metadata !52, metadata !"RetType", metadata !53, i32 1307, i64 0, i64 0, i64 0, i32 0, metadata !174} ; [ DW_TAG_typedef ]
!174 = metadata !{i32 786454, metadata !175, metadata !"Type", metadata !53, i32 1292, i64 0, i64 0, i64 0, i32 0, metadata !125} ; [ DW_TAG_typedef ]
!175 = metadata !{i32 786434, null, metadata !"retval<false>", metadata !53, i32 1291, i64 8, i64 8, i32 0, i32 0, null, metadata !176, i32 0, null, metadata !177} ; [ DW_TAG_class_type ]
!176 = metadata !{i32 0}
!177 = metadata !{metadata !70}
!178 = metadata !{i32 786447, i32 0, metadata !"", i32 0, i32 0, i64 64, i64 64, i64 0, i32 64, metadata !179} ; [ DW_TAG_pointer_type ]
!179 = metadata !{i32 786470, null, metadata !"", null, i32 0, i64 0, i64 0, i64 0, i32 0, metadata !52} ; [ DW_TAG_const_type ]
!180 = metadata !{i32 786478, i32 0, metadata !52, metadata !"to_bool", metadata !"to_bool", metadata !"_ZNK11ap_int_baseILi4ELb0ELb1EE7to_boolEv", metadata !53, i32 1557, metadata !181, i1 false, i1 false, i32 0, i32 0, null, i32 256, i1 false, null, null, i32 0, metadata !65, i32 1557} ; [ DW_TAG_subprogram ]
!181 = metadata !{i32 786453, i32 0, metadata !"", i32 0, i32 0, i64 0, i64 0, i64 0, i32 0, null, metadata !182, i32 0, i32 0} ; [ DW_TAG_subroutine_type ]
!182 = metadata !{metadata !44, metadata !178}
!183 = metadata !{i32 786478, i32 0, metadata !52, metadata !"to_int", metadata !"to_int", metadata !"_ZNK11ap_int_baseILi4ELb0ELb1EE6to_intEv", metadata !53, i32 1558, metadata !184, i1 false, i1 false, i32 0, i32 0, null, i32 256, i1 false, null, null, i32 0, metadata !65, i32 1558} ; [ DW_TAG_subprogram ]
!184 = metadata !{i32 786453, i32 0, metadata !"", i32 0, i32 0, i64 0, i64 0, i64 0, i32 0, null, metadata !185, i32 0, i32 0} ; [ DW_TAG_subroutine_type ]
!185 = metadata !{metadata !69, metadata !178}
!186 = metadata !{i32 786478, i32 0, metadata !52, metadata !"to_uint", metadata !"to_uint", metadata !"_ZNK11ap_int_baseILi4ELb0ELb1EE7to_uintEv", metadata !53, i32 1559, metadata !187, i1 false, i1 false, i32 0, i32 0, null, i32 256, i1 false, null, null, i32 0, metadata !65, i32 1559} ; [ DW_TAG_subprogram ]
!187 = metadata !{i32 786453, i32 0, metadata !"", i32 0, i32 0, i64 0, i64 0, i64 0, i32 0, null, metadata !188, i32 0, i32 0} ; [ DW_TAG_subroutine_type ]
!188 = metadata !{metadata !108, metadata !178}
!189 = metadata !{i32 786478, i32 0, metadata !52, metadata !"to_long", metadata !"to_long", metadata !"_ZNK11ap_int_baseILi4ELb0ELb1EE7to_longEv", metadata !53, i32 1560, metadata !190, i1 false, i1 false, i32 0, i32 0, null, i32 256, i1 false, null, null, i32 0, metadata !65, i32 1560} ; [ DW_TAG_subprogram ]
!190 = metadata !{i32 786453, i32 0, metadata !"", i32 0, i32 0, i64 0, i64 0, i64 0, i32 0, null, metadata !191, i32 0, i32 0} ; [ DW_TAG_subroutine_type ]
!191 = metadata !{metadata !112, metadata !178}
!192 = metadata !{i32 786478, i32 0, metadata !52, metadata !"to_ulong", metadata !"to_ulong", metadata !"_ZNK11ap_int_baseILi4ELb0ELb1EE8to_ulongEv", metadata !53, i32 1561, metadata !193, i1 false, i1 false, i32 0, i32 0, null, i32 256, i1 false, null, null, i32 0, metadata !65, i32 1561} ; [ DW_TAG_subprogram ]
!193 = metadata !{i32 786453, i32 0, metadata !"", i32 0, i32 0, i64 0, i64 0, i64 0, i32 0, null, metadata !194, i32 0, i32 0} ; [ DW_TAG_subroutine_type ]
!194 = metadata !{metadata !116, metadata !178}
!195 = metadata !{i32 786478, i32 0, metadata !52, metadata !"to_int64", metadata !"to_int64", metadata !"_ZNK11ap_int_baseILi4ELb0ELb1EE8to_int64Ev", metadata !53, i32 1562, metadata !196, i1 false, i1 false, i32 0, i32 0, null, i32 256, i1 false, null, null, i32 0, metadata !65, i32 1562} ; [ DW_TAG_subprogram ]
!196 = metadata !{i32 786453, i32 0, metadata !"", i32 0, i32 0, i64 0, i64 0, i64 0, i32 0, null, metadata !197, i32 0, i32 0} ; [ DW_TAG_subroutine_type ]
!197 = metadata !{metadata !120, metadata !178}
!198 = metadata !{i32 786478, i32 0, metadata !52, metadata !"to_uint64", metadata !"to_uint64", metadata !"_ZNK11ap_int_baseILi4ELb0ELb1EE9to_uint64Ev", metadata !53, i32 1563, metadata !199, i1 false, i1 false, i32 0, i32 0, null, i32 256, i1 false, null, null, i32 0, metadata !65, i32 1563} ; [ DW_TAG_subprogram ]
!199 = metadata !{i32 786453, i32 0, metadata !"", i32 0, i32 0, i64 0, i64 0, i64 0, i32 0, null, metadata !200, i32 0, i32 0} ; [ DW_TAG_subroutine_type ]
!200 = metadata !{metadata !125, metadata !178}
!201 = metadata !{i32 786478, i32 0, metadata !52, metadata !"to_double", metadata !"to_double", metadata !"_ZNK11ap_int_baseILi4ELb0ELb1EE9to_doubleEv", metadata !53, i32 1564, metadata !202, i1 false, i1 false, i32 0, i32 0, null, i32 256, i1 false, null, null, i32 0, metadata !65, i32 1564} ; [ DW_TAG_subprogram ]
!202 = metadata !{i32 786453, i32 0, metadata !"", i32 0, i32 0, i64 0, i64 0, i64 0, i32 0, null, metadata !203, i32 0, i32 0} ; [ DW_TAG_subroutine_type ]
!203 = metadata !{metadata !134, metadata !178}
!204 = metadata !{i32 786478, i32 0, metadata !52, metadata !"length", metadata !"length", metadata !"_ZNK11ap_int_baseILi4ELb0ELb1EE6lengthEv", metadata !53, i32 1577, metadata !184, i1 false, i1 false, i32 0, i32 0, null, i32 256, i1 false, null, null, i32 0, metadata !65, i32 1577} ; [ DW_TAG_subprogram ]
!205 = metadata !{i32 786478, i32 0, metadata !52, metadata !"length", metadata !"length", metadata !"_ZNVK11ap_int_baseILi4ELb0ELb1EE6lengthEv", metadata !53, i32 1578, metadata !206, i1 false, i1 false, i32 0, i32 0, null, i32 256, i1 false, null, null, i32 0, metadata !65, i32 1578} ; [ DW_TAG_subprogram ]
!206 = metadata !{i32 786453, i32 0, metadata !"", i32 0, i32 0, i64 0, i64 0, i64 0, i32 0, null, metadata !207, i32 0, i32 0} ; [ DW_TAG_subroutine_type ]
!207 = metadata !{metadata !69, metadata !208}
!208 = metadata !{i32 786447, i32 0, metadata !"", i32 0, i32 0, i64 64, i64 64, i64 0, i32 64, metadata !209} ; [ DW_TAG_pointer_type ]
!209 = metadata !{i32 786470, null, metadata !"", null, i32 0, i64 0, i64 0, i64 0, i32 0, metadata !148} ; [ DW_TAG_const_type ]
!210 = metadata !{i32 786478, i32 0, metadata !52, metadata !"reverse", metadata !"reverse", metadata !"_ZN11ap_int_baseILi4ELb0ELb1EE7reverseEv", metadata !53, i32 1583, metadata !211, i1 false, i1 false, i32 0, i32 0, null, i32 256, i1 false, null, null, i32 0, metadata !65, i32 1583} ; [ DW_TAG_subprogram ]
!211 = metadata !{i32 786453, i32 0, metadata !"", i32 0, i32 0, i64 0, i64 0, i64 0, i32 0, null, metadata !212, i32 0, i32 0} ; [ DW_TAG_subroutine_type ]
!212 = metadata !{metadata !78, metadata !74}
!213 = metadata !{i32 786478, i32 0, metadata !52, metadata !"iszero", metadata !"iszero", metadata !"_ZNK11ap_int_baseILi4ELb0ELb1EE6iszeroEv", metadata !53, i32 1589, metadata !181, i1 false, i1 false, i32 0, i32 0, null, i32 256, i1 false, null, null, i32 0, metadata !65, i32 1589} ; [ DW_TAG_subprogram ]
!214 = metadata !{i32 786478, i32 0, metadata !52, metadata !"is_zero", metadata !"is_zero", metadata !"_ZNK11ap_int_baseILi4ELb0ELb1EE7is_zeroEv", metadata !53, i32 1594, metadata !181, i1 false, i1 false, i32 0, i32 0, null, i32 256, i1 false, null, null, i32 0, metadata !65, i32 1594} ; [ DW_TAG_subprogram ]
!215 = metadata !{i32 786478, i32 0, metadata !52, metadata !"sign", metadata !"sign", metadata !"_ZNK11ap_int_baseILi4ELb0ELb1EE4signEv", metadata !53, i32 1599, metadata !181, i1 false, i1 false, i32 0, i32 0, null, i32 256, i1 false, null, null, i32 0, metadata !65, i32 1599} ; [ DW_TAG_subprogram ]
!216 = metadata !{i32 786478, i32 0, metadata !52, metadata !"clear", metadata !"clear", metadata !"_ZN11ap_int_baseILi4ELb0ELb1EE5clearEi", metadata !53, i32 1607, metadata !103, i1 false, i1 false, i32 0, i32 0, null, i32 256, i1 false, null, null, i32 0, metadata !65, i32 1607} ; [ DW_TAG_subprogram ]
!217 = metadata !{i32 786478, i32 0, metadata !52, metadata !"invert", metadata !"invert", metadata !"_ZN11ap_int_baseILi4ELb0ELb1EE6invertEi", metadata !53, i32 1613, metadata !103, i1 false, i1 false, i32 0, i32 0, null, i32 256, i1 false, null, null, i32 0, metadata !65, i32 1613} ; [ DW_TAG_subprogram ]
!218 = metadata !{i32 786478, i32 0, metadata !52, metadata !"test", metadata !"test", metadata !"_ZNK11ap_int_baseILi4ELb0ELb1EE4testEi", metadata !53, i32 1621, metadata !219, i1 false, i1 false, i32 0, i32 0, null, i32 256, i1 false, null, null, i32 0, metadata !65, i32 1621} ; [ DW_TAG_subprogram ]
!219 = metadata !{i32 786453, i32 0, metadata !"", i32 0, i32 0, i64 0, i64 0, i64 0, i32 0, null, metadata !220, i32 0, i32 0} ; [ DW_TAG_subroutine_type ]
!220 = metadata !{metadata !44, metadata !178, metadata !69}
!221 = metadata !{i32 786478, i32 0, metadata !52, metadata !"set", metadata !"set", metadata !"_ZN11ap_int_baseILi4ELb0ELb1EE3setEi", metadata !53, i32 1627, metadata !103, i1 false, i1 false, i32 0, i32 0, null, i32 256, i1 false, null, null, i32 0, metadata !65, i32 1627} ; [ DW_TAG_subprogram ]
!222 = metadata !{i32 786478, i32 0, metadata !52, metadata !"set", metadata !"set", metadata !"_ZN11ap_int_baseILi4ELb0ELb1EE3setEib", metadata !53, i32 1633, metadata !223, i1 false, i1 false, i32 0, i32 0, null, i32 256, i1 false, null, null, i32 0, metadata !65, i32 1633} ; [ DW_TAG_subprogram ]
!223 = metadata !{i32 786453, i32 0, metadata !"", i32 0, i32 0, i64 0, i64 0, i64 0, i32 0, null, metadata !224, i32 0, i32 0} ; [ DW_TAG_subroutine_type ]
!224 = metadata !{null, metadata !74, metadata !69, metadata !44}
!225 = metadata !{i32 786478, i32 0, metadata !52, metadata !"lrotate", metadata !"lrotate", metadata !"_ZN11ap_int_baseILi4ELb0ELb1EE7lrotateEi", metadata !53, i32 1640, metadata !103, i1 false, i1 false, i32 0, i32 0, null, i32 256, i1 false, null, null, i32 0, metadata !65, i32 1640} ; [ DW_TAG_subprogram ]
!226 = metadata !{i32 786478, i32 0, metadata !52, metadata !"rrotate", metadata !"rrotate", metadata !"_ZN11ap_int_baseILi4ELb0ELb1EE7rrotateEi", metadata !53, i32 1649, metadata !103, i1 false, i1 false, i32 0, i32 0, null, i32 256, i1 false, null, null, i32 0, metadata !65, i32 1649} ; [ DW_TAG_subprogram ]
!227 = metadata !{i32 786478, i32 0, metadata !52, metadata !"set_bit", metadata !"set_bit", metadata !"_ZN11ap_int_baseILi4ELb0ELb1EE7set_bitEib", metadata !53, i32 1657, metadata !223, i1 false, i1 false, i32 0, i32 0, null, i32 256, i1 false, null, null, i32 0, metadata !65, i32 1657} ; [ DW_TAG_subprogram ]
!228 = metadata !{i32 786478, i32 0, metadata !52, metadata !"get_bit", metadata !"get_bit", metadata !"_ZNK11ap_int_baseILi4ELb0ELb1EE7get_bitEi", metadata !53, i32 1662, metadata !219, i1 false, i1 false, i32 0, i32 0, null, i32 256, i1 false, null, null, i32 0, metadata !65, i32 1662} ; [ DW_TAG_subprogram ]
!229 = metadata !{i32 786478, i32 0, metadata !52, metadata !"b_not", metadata !"b_not", metadata !"_ZN11ap_int_baseILi4ELb0ELb1EE5b_notEv", metadata !53, i32 1667, metadata !72, i1 false, i1 false, i32 0, i32 0, null, i32 256, i1 false, null, null, i32 0, metadata !65, i32 1667} ; [ DW_TAG_subprogram ]
!230 = metadata !{i32 786478, i32 0, metadata !52, metadata !"countLeadingZeros", metadata !"countLeadingZeros", metadata !"_ZN11ap_int_baseILi4ELb0ELb1EE17countLeadingZerosEv", metadata !53, i32 1674, metadata !231, i1 false, i1 false, i32 0, i32 0, null, i32 256, i1 false, null, null, i32 0, metadata !65, i32 1674} ; [ DW_TAG_subprogram ]
!231 = metadata !{i32 786453, i32 0, metadata !"", i32 0, i32 0, i64 0, i64 0, i64 0, i32 0, null, metadata !232, i32 0, i32 0} ; [ DW_TAG_subroutine_type ]
!232 = metadata !{metadata !69, metadata !74}
!233 = metadata !{i32 786478, i32 0, metadata !52, metadata !"operator++", metadata !"operator++", metadata !"_ZN11ap_int_baseILi4ELb0ELb1EEppEv", metadata !53, i32 1731, metadata !211, i1 false, i1 false, i32 0, i32 0, null, i32 256, i1 false, null, null, i32 0, metadata !65, i32 1731} ; [ DW_TAG_subprogram ]
!234 = metadata !{i32 786478, i32 0, metadata !52, metadata !"operator--", metadata !"operator--", metadata !"_ZN11ap_int_baseILi4ELb0ELb1EEmmEv", metadata !53, i32 1735, metadata !211, i1 false, i1 false, i32 0, i32 0, null, i32 256, i1 false, null, null, i32 0, metadata !65, i32 1735} ; [ DW_TAG_subprogram ]
!235 = metadata !{i32 786478, i32 0, metadata !52, metadata !"operator++", metadata !"operator++", metadata !"_ZN11ap_int_baseILi4ELb0ELb1EEppEi", metadata !53, i32 1743, metadata !236, i1 false, i1 false, i32 0, i32 0, null, i32 256, i1 false, null, null, i32 0, metadata !65, i32 1743} ; [ DW_TAG_subprogram ]
!236 = metadata !{i32 786453, i32 0, metadata !"", i32 0, i32 0, i64 0, i64 0, i64 0, i32 0, null, metadata !237, i32 0, i32 0} ; [ DW_TAG_subroutine_type ]
!237 = metadata !{metadata !179, metadata !74, metadata !69}
!238 = metadata !{i32 786478, i32 0, metadata !52, metadata !"operator--", metadata !"operator--", metadata !"_ZN11ap_int_baseILi4ELb0ELb1EEmmEi", metadata !53, i32 1748, metadata !236, i1 false, i1 false, i32 0, i32 0, null, i32 256, i1 false, null, null, i32 0, metadata !65, i32 1748} ; [ DW_TAG_subprogram ]
!239 = metadata !{i32 786478, i32 0, metadata !52, metadata !"operator+", metadata !"operator+", metadata !"_ZNK11ap_int_baseILi4ELb0ELb1EEpsEv", metadata !53, i32 1757, metadata !240, i1 false, i1 false, i32 0, i32 0, null, i32 256, i1 false, null, null, i32 0, metadata !65, i32 1757} ; [ DW_TAG_subprogram ]
!240 = metadata !{i32 786453, i32 0, metadata !"", i32 0, i32 0, i64 0, i64 0, i64 0, i32 0, null, metadata !241, i32 0, i32 0} ; [ DW_TAG_subroutine_type ]
!241 = metadata !{metadata !52, metadata !178}
!242 = metadata !{i32 786478, i32 0, metadata !52, metadata !"operator!", metadata !"operator!", metadata !"_ZNK11ap_int_baseILi4ELb0ELb1EEntEv", metadata !53, i32 1763, metadata !181, i1 false, i1 false, i32 0, i32 0, null, i32 256, i1 false, null, null, i32 0, metadata !65, i32 1763} ; [ DW_TAG_subprogram ]
!243 = metadata !{i32 786478, i32 0, metadata !52, metadata !"operator-", metadata !"operator-", metadata !"_ZNK11ap_int_baseILi4ELb0ELb1EEngEv", metadata !53, i32 1768, metadata !244, i1 false, i1 false, i32 0, i32 0, null, i32 256, i1 false, null, null, i32 0, metadata !65, i32 1768} ; [ DW_TAG_subprogram ]
!244 = metadata !{i32 786453, i32 0, metadata !"", i32 0, i32 0, i64 0, i64 0, i64 0, i32 0, null, metadata !245, i32 0, i32 0} ; [ DW_TAG_subroutine_type ]
!245 = metadata !{metadata !246, metadata !178}
!246 = metadata !{i32 786434, null, metadata !"ap_int_base<5, true, true>", metadata !53, i32 605, i32 0, i32 0, i32 0, i32 4, null, null, i32 0} ; [ DW_TAG_class_type ]
!247 = metadata !{i32 786478, i32 0, metadata !52, metadata !"range", metadata !"range", metadata !"_ZN11ap_int_baseILi4ELb0ELb1EE5rangeEii", metadata !53, i32 1898, metadata !248, i1 false, i1 false, i32 0, i32 0, null, i32 256, i1 false, null, null, i32 0, metadata !65, i32 1898} ; [ DW_TAG_subprogram ]
!248 = metadata !{i32 786453, i32 0, metadata !"", i32 0, i32 0, i64 0, i64 0, i64 0, i32 0, null, metadata !249, i32 0, i32 0} ; [ DW_TAG_subroutine_type ]
!249 = metadata !{metadata !250, metadata !74, metadata !69, metadata !69}
!250 = metadata !{i32 786434, null, metadata !"ap_range_ref<4, false>", metadata !53, i32 878, i32 0, i32 0, i32 0, i32 4, null, null, i32 0} ; [ DW_TAG_class_type ]
!251 = metadata !{i32 786478, i32 0, metadata !52, metadata !"operator()", metadata !"operator()", metadata !"_ZN11ap_int_baseILi4ELb0ELb1EEclEii", metadata !53, i32 1904, metadata !248, i1 false, i1 false, i32 0, i32 0, null, i32 256, i1 false, null, null, i32 0, metadata !65, i32 1904} ; [ DW_TAG_subprogram ]
!252 = metadata !{i32 786478, i32 0, metadata !52, metadata !"range", metadata !"range", metadata !"_ZNK11ap_int_baseILi4ELb0ELb1EE5rangeEii", metadata !53, i32 1910, metadata !253, i1 false, i1 false, i32 0, i32 0, null, i32 256, i1 false, null, null, i32 0, metadata !65, i32 1910} ; [ DW_TAG_subprogram ]
!253 = metadata !{i32 786453, i32 0, metadata !"", i32 0, i32 0, i64 0, i64 0, i64 0, i32 0, null, metadata !254, i32 0, i32 0} ; [ DW_TAG_subroutine_type ]
!254 = metadata !{metadata !250, metadata !178, metadata !69, metadata !69}
!255 = metadata !{i32 786478, i32 0, metadata !52, metadata !"operator()", metadata !"operator()", metadata !"_ZNK11ap_int_baseILi4ELb0ELb1EEclEii", metadata !53, i32 1916, metadata !253, i1 false, i1 false, i32 0, i32 0, null, i32 256, i1 false, null, null, i32 0, metadata !65, i32 1916} ; [ DW_TAG_subprogram ]
!256 = metadata !{i32 786478, i32 0, metadata !52, metadata !"operator[]", metadata !"operator[]", metadata !"_ZN11ap_int_baseILi4ELb0ELb1EEixEi", metadata !53, i32 1935, metadata !257, i1 false, i1 false, i32 0, i32 0, null, i32 256, i1 false, null, null, i32 0, metadata !65, i32 1935} ; [ DW_TAG_subprogram ]
!257 = metadata !{i32 786453, i32 0, metadata !"", i32 0, i32 0, i64 0, i64 0, i64 0, i32 0, null, metadata !258, i32 0, i32 0} ; [ DW_TAG_subroutine_type ]
!258 = metadata !{metadata !259, metadata !74, metadata !69}
!259 = metadata !{i32 786434, null, metadata !"ap_bit_ref<4, false>", metadata !53, i32 1124, i32 0, i32 0, i32 0, i32 4, null, null, i32 0} ; [ DW_TAG_class_type ]
!260 = metadata !{i32 786478, i32 0, metadata !52, metadata !"operator[]", metadata !"operator[]", metadata !"_ZNK11ap_int_baseILi4ELb0ELb1EEixEi", metadata !53, i32 1949, metadata !219, i1 false, i1 false, i32 0, i32 0, null, i32 256, i1 false, null, null, i32 0, metadata !65, i32 1949} ; [ DW_TAG_subprogram ]
!261 = metadata !{i32 786478, i32 0, metadata !52, metadata !"bit", metadata !"bit", metadata !"_ZN11ap_int_baseILi4ELb0ELb1EE3bitEi", metadata !53, i32 1963, metadata !257, i1 false, i1 false, i32 0, i32 0, null, i32 256, i1 false, null, null, i32 0, metadata !65, i32 1963} ; [ DW_TAG_subprogram ]
!262 = metadata !{i32 786478, i32 0, metadata !52, metadata !"bit", metadata !"bit", metadata !"_ZNK11ap_int_baseILi4ELb0ELb1EE3bitEi", metadata !53, i32 1977, metadata !219, i1 false, i1 false, i32 0, i32 0, null, i32 256, i1 false, null, null, i32 0, metadata !65, i32 1977} ; [ DW_TAG_subprogram ]
!263 = metadata !{i32 786478, i32 0, metadata !52, metadata !"and_reduce", metadata !"and_reduce", metadata !"_ZN11ap_int_baseILi4ELb0ELb1EE10and_reduceEv", metadata !53, i32 2157, metadata !264, i1 false, i1 false, i32 0, i32 0, null, i32 256, i1 false, null, null, i32 0, metadata !65, i32 2157} ; [ DW_TAG_subprogram ]
!264 = metadata !{i32 786453, i32 0, metadata !"", i32 0, i32 0, i64 0, i64 0, i64 0, i32 0, null, metadata !265, i32 0, i32 0} ; [ DW_TAG_subroutine_type ]
!265 = metadata !{metadata !44, metadata !74}
!266 = metadata !{i32 786478, i32 0, metadata !52, metadata !"nand_reduce", metadata !"nand_reduce", metadata !"_ZN11ap_int_baseILi4ELb0ELb1EE11nand_reduceEv", metadata !53, i32 2160, metadata !264, i1 false, i1 false, i32 0, i32 0, null, i32 256, i1 false, null, null, i32 0, metadata !65, i32 2160} ; [ DW_TAG_subprogram ]
!267 = metadata !{i32 786478, i32 0, metadata !52, metadata !"or_reduce", metadata !"or_reduce", metadata !"_ZN11ap_int_baseILi4ELb0ELb1EE9or_reduceEv", metadata !53, i32 2163, metadata !264, i1 false, i1 false, i32 0, i32 0, null, i32 256, i1 false, null, null, i32 0, metadata !65, i32 2163} ; [ DW_TAG_subprogram ]
!268 = metadata !{i32 786478, i32 0, metadata !52, metadata !"nor_reduce", metadata !"nor_reduce", metadata !"_ZN11ap_int_baseILi4ELb0ELb1EE10nor_reduceEv", metadata !53, i32 2166, metadata !264, i1 false, i1 false, i32 0, i32 0, null, i32 256, i1 false, null, null, i32 0, metadata !65, i32 2166} ; [ DW_TAG_subprogram ]
!269 = metadata !{i32 786478, i32 0, metadata !52, metadata !"xor_reduce", metadata !"xor_reduce", metadata !"_ZN11ap_int_baseILi4ELb0ELb1EE10xor_reduceEv", metadata !53, i32 2169, metadata !264, i1 false, i1 false, i32 0, i32 0, null, i32 256, i1 false, null, null, i32 0, metadata !65, i32 2169} ; [ DW_TAG_subprogram ]
!270 = metadata !{i32 786478, i32 0, metadata !52, metadata !"xnor_reduce", metadata !"xnor_reduce", metadata !"_ZN11ap_int_baseILi4ELb0ELb1EE11xnor_reduceEv", metadata !53, i32 2172, metadata !264, i1 false, i1 false, i32 0, i32 0, null, i32 256, i1 false, null, null, i32 0, metadata !65, i32 2172} ; [ DW_TAG_subprogram ]
!271 = metadata !{i32 786478, i32 0, metadata !52, metadata !"and_reduce", metadata !"and_reduce", metadata !"_ZNK11ap_int_baseILi4ELb0ELb1EE10and_reduceEv", metadata !53, i32 2176, metadata !181, i1 false, i1 false, i32 0, i32 0, null, i32 256, i1 false, null, null, i32 0, metadata !65, i32 2176} ; [ DW_TAG_subprogram ]
!272 = metadata !{i32 786478, i32 0, metadata !52, metadata !"nand_reduce", metadata !"nand_reduce", metadata !"_ZNK11ap_int_baseILi4ELb0ELb1EE11nand_reduceEv", metadata !53, i32 2179, metadata !181, i1 false, i1 false, i32 0, i32 0, null, i32 256, i1 false, null, null, i32 0, metadata !65, i32 2179} ; [ DW_TAG_subprogram ]
!273 = metadata !{i32 786478, i32 0, metadata !52, metadata !"or_reduce", metadata !"or_reduce", metadata !"_ZNK11ap_int_baseILi4ELb0ELb1EE9or_reduceEv", metadata !53, i32 2182, metadata !181, i1 false, i1 false, i32 0, i32 0, null, i32 256, i1 false, null, null, i32 0, metadata !65, i32 2182} ; [ DW_TAG_subprogram ]
!274 = metadata !{i32 786478, i32 0, metadata !52, metadata !"nor_reduce", metadata !"nor_reduce", metadata !"_ZNK11ap_int_baseILi4ELb0ELb1EE10nor_reduceEv", metadata !53, i32 2185, metadata !181, i1 false, i1 false, i32 0, i32 0, null, i32 256, i1 false, null, null, i32 0, metadata !65, i32 2185} ; [ DW_TAG_subprogram ]
!275 = metadata !{i32 786478, i32 0, metadata !52, metadata !"xor_reduce", metadata !"xor_reduce", metadata !"_ZNK11ap_int_baseILi4ELb0ELb1EE10xor_reduceEv", metadata !53, i32 2188, metadata !181, i1 false, i1 false, i32 0, i32 0, null, i32 256, i1 false, null, null, i32 0, metadata !65, i32 2188} ; [ DW_TAG_subprogram ]
!276 = metadata !{i32 786478, i32 0, metadata !52, metadata !"xnor_reduce", metadata !"xnor_reduce", metadata !"_ZNK11ap_int_baseILi4ELb0ELb1EE11xnor_reduceEv", metadata !53, i32 2191, metadata !181, i1 false, i1 false, i32 0, i32 0, null, i32 256, i1 false, null, null, i32 0, metadata !65, i32 2191} ; [ DW_TAG_subprogram ]
!277 = metadata !{i32 786478, i32 0, metadata !52, metadata !"to_string", metadata !"to_string", metadata !"_ZNK11ap_int_baseILi4ELb0ELb1EE9to_stringEPci8BaseModeb", metadata !53, i32 2198, metadata !278, i1 false, i1 false, i32 0, i32 0, null, i32 256, i1 false, null, null, i32 0, metadata !65, i32 2198} ; [ DW_TAG_subprogram ]
!278 = metadata !{i32 786453, i32 0, metadata !"", i32 0, i32 0, i64 0, i64 0, i64 0, i32 0, null, metadata !279, i32 0, i32 0} ; [ DW_TAG_subroutine_type ]
!279 = metadata !{null, metadata !178, metadata !280, metadata !69, metadata !281, metadata !44}
!280 = metadata !{i32 786447, null, metadata !"", null, i32 0, i64 64, i64 64, i64 0, i32 0, metadata !140} ; [ DW_TAG_pointer_type ]
!281 = metadata !{i32 786436, null, metadata !"BaseMode", metadata !53, i32 557, i64 5, i64 8, i32 0, i32 0, null, metadata !282, i32 0, i32 0} ; [ DW_TAG_enumeration_type ]
!282 = metadata !{metadata !283, metadata !284, metadata !285, metadata !286}
!283 = metadata !{i32 786472, metadata !"SC_BIN", i64 2} ; [ DW_TAG_enumerator ]
!284 = metadata !{i32 786472, metadata !"SC_OCT", i64 8} ; [ DW_TAG_enumerator ]
!285 = metadata !{i32 786472, metadata !"SC_DEC", i64 10} ; [ DW_TAG_enumerator ]
!286 = metadata !{i32 786472, metadata !"SC_HEX", i64 16} ; [ DW_TAG_enumerator ]
!287 = metadata !{i32 786478, i32 0, metadata !52, metadata !"to_string", metadata !"to_string", metadata !"_ZNK11ap_int_baseILi4ELb0ELb1EE9to_stringE8BaseModeb", metadata !53, i32 2225, metadata !288, i1 false, i1 false, i32 0, i32 0, null, i32 256, i1 false, null, null, i32 0, metadata !65, i32 2225} ; [ DW_TAG_subprogram ]
!288 = metadata !{i32 786453, i32 0, metadata !"", i32 0, i32 0, i64 0, i64 0, i64 0, i32 0, null, metadata !289, i32 0, i32 0} ; [ DW_TAG_subroutine_type ]
!289 = metadata !{metadata !280, metadata !178, metadata !281, metadata !44}
!290 = metadata !{i32 786478, i32 0, metadata !52, metadata !"to_string", metadata !"to_string", metadata !"_ZNK11ap_int_baseILi4ELb0ELb1EE9to_stringEab", metadata !53, i32 2229, metadata !291, i1 false, i1 false, i32 0, i32 0, null, i32 256, i1 false, null, null, i32 0, metadata !65, i32 2229} ; [ DW_TAG_subprogram ]
!291 = metadata !{i32 786453, i32 0, metadata !"", i32 0, i32 0, i64 0, i64 0, i64 0, i32 0, null, metadata !292, i32 0, i32 0} ; [ DW_TAG_subroutine_type ]
!292 = metadata !{metadata !280, metadata !178, metadata !89, metadata !44}
!293 = metadata !{metadata !294, metadata !70}
!294 = metadata !{i32 786480, null, metadata !"_AP_W", metadata !69, i64 4, null, i32 0, i32 0} ; [ DW_TAG_template_value_parameter ]
!295 = metadata !{i32 786478, i32 0, metadata !48, metadata !"ap_uint", metadata !"ap_uint", metadata !"", metadata !49, i32 137, metadata !296, i1 false, i1 false, i32 0, i32 0, null, i32 256, i1 false, null, null, i32 0, metadata !65, i32 137} ; [ DW_TAG_subprogram ]
!296 = metadata !{i32 786453, i32 0, metadata !"", i32 0, i32 0, i64 0, i64 0, i64 0, i32 0, null, metadata !297, i32 0, i32 0} ; [ DW_TAG_subroutine_type ]
!297 = metadata !{null, metadata !298}
!298 = metadata !{i32 786447, i32 0, metadata !"", i32 0, i32 0, i64 64, i64 64, i64 0, i32 64, metadata !48} ; [ DW_TAG_pointer_type ]
!299 = metadata !{i32 786478, i32 0, metadata !48, metadata !"ap_uint<4>", metadata !"ap_uint<4>", metadata !"", metadata !49, i32 139, metadata !300, i1 false, i1 false, i32 0, i32 0, null, i32 256, i1 false, null, metadata !303, i32 0, metadata !65, i32 139} ; [ DW_TAG_subprogram ]
!300 = metadata !{i32 786453, i32 0, metadata !"", i32 0, i32 0, i64 0, i64 0, i64 0, i32 0, null, metadata !301, i32 0, i32 0} ; [ DW_TAG_subroutine_type ]
!301 = metadata !{null, metadata !298, metadata !302}
!302 = metadata !{i32 786448, null, null, null, i32 0, i64 0, i64 0, i64 0, i32 0, metadata !48} ; [ DW_TAG_reference_type ]
!303 = metadata !{metadata !80}
!304 = metadata !{i32 786478, i32 0, metadata !48, metadata !"ap_uint<4>", metadata !"ap_uint<4>", metadata !"", metadata !49, i32 145, metadata !300, i1 false, i1 false, i32 0, i32 0, null, i32 256, i1 false, null, metadata !303, i32 0, metadata !65, i32 145} ; [ DW_TAG_subprogram ]
!305 = metadata !{i32 786478, i32 0, metadata !48, metadata !"ap_uint<4, false>", metadata !"ap_uint<4, false>", metadata !"", metadata !49, i32 180, metadata !306, i1 false, i1 false, i32 0, i32 0, null, i32 256, i1 false, null, metadata !79, i32 0, metadata !65, i32 180} ; [ DW_TAG_subprogram ]
!306 = metadata !{i32 786453, i32 0, metadata !"", i32 0, i32 0, i64 0, i64 0, i64 0, i32 0, null, metadata !307, i32 0, i32 0} ; [ DW_TAG_subroutine_type ]
!307 = metadata !{null, metadata !298, metadata !78}
!308 = metadata !{i32 786478, i32 0, metadata !48, metadata !"ap_uint", metadata !"ap_uint", metadata !"", metadata !49, i32 199, metadata !309, i1 false, i1 false, i32 0, i32 0, null, i32 256, i1 false, null, null, i32 0, metadata !65, i32 199} ; [ DW_TAG_subprogram ]
!309 = metadata !{i32 786453, i32 0, metadata !"", i32 0, i32 0, i64 0, i64 0, i64 0, i32 0, null, metadata !310, i32 0, i32 0} ; [ DW_TAG_subroutine_type ]
!310 = metadata !{null, metadata !298, metadata !44}
!311 = metadata !{i32 786478, i32 0, metadata !48, metadata !"ap_uint", metadata !"ap_uint", metadata !"", metadata !49, i32 200, metadata !312, i1 false, i1 false, i32 0, i32 0, null, i32 256, i1 false, null, null, i32 0, metadata !65, i32 200} ; [ DW_TAG_subprogram ]
!312 = metadata !{i32 786453, i32 0, metadata !"", i32 0, i32 0, i64 0, i64 0, i64 0, i32 0, null, metadata !313, i32 0, i32 0} ; [ DW_TAG_subroutine_type ]
!313 = metadata !{null, metadata !298, metadata !89}
!314 = metadata !{i32 786478, i32 0, metadata !48, metadata !"ap_uint", metadata !"ap_uint", metadata !"", metadata !49, i32 201, metadata !315, i1 false, i1 false, i32 0, i32 0, null, i32 256, i1 false, null, null, i32 0, metadata !65, i32 201} ; [ DW_TAG_subprogram ]
!315 = metadata !{i32 786453, i32 0, metadata !"", i32 0, i32 0, i64 0, i64 0, i64 0, i32 0, null, metadata !316, i32 0, i32 0} ; [ DW_TAG_subroutine_type ]
!316 = metadata !{null, metadata !298, metadata !93}
!317 = metadata !{i32 786478, i32 0, metadata !48, metadata !"ap_uint", metadata !"ap_uint", metadata !"", metadata !49, i32 202, metadata !318, i1 false, i1 false, i32 0, i32 0, null, i32 256, i1 false, null, null, i32 0, metadata !65, i32 202} ; [ DW_TAG_subprogram ]
!318 = metadata !{i32 786453, i32 0, metadata !"", i32 0, i32 0, i64 0, i64 0, i64 0, i32 0, null, metadata !319, i32 0, i32 0} ; [ DW_TAG_subroutine_type ]
!319 = metadata !{null, metadata !298, metadata !97}
!320 = metadata !{i32 786478, i32 0, metadata !48, metadata !"ap_uint", metadata !"ap_uint", metadata !"", metadata !49, i32 203, metadata !321, i1 false, i1 false, i32 0, i32 0, null, i32 256, i1 false, null, null, i32 0, metadata !65, i32 203} ; [ DW_TAG_subprogram ]
!321 = metadata !{i32 786453, i32 0, metadata !"", i32 0, i32 0, i64 0, i64 0, i64 0, i32 0, null, metadata !322, i32 0, i32 0} ; [ DW_TAG_subroutine_type ]
!322 = metadata !{null, metadata !298, metadata !101}
!323 = metadata !{i32 786478, i32 0, metadata !48, metadata !"ap_uint", metadata !"ap_uint", metadata !"", metadata !49, i32 204, metadata !324, i1 false, i1 false, i32 0, i32 0, null, i32 256, i1 false, null, null, i32 0, metadata !65, i32 204} ; [ DW_TAG_subprogram ]
!324 = metadata !{i32 786453, i32 0, metadata !"", i32 0, i32 0, i64 0, i64 0, i64 0, i32 0, null, metadata !325, i32 0, i32 0} ; [ DW_TAG_subroutine_type ]
!325 = metadata !{null, metadata !298, metadata !69}
!326 = metadata !{i32 786478, i32 0, metadata !48, metadata !"ap_uint", metadata !"ap_uint", metadata !"", metadata !49, i32 205, metadata !327, i1 false, i1 false, i32 0, i32 0, null, i32 256, i1 false, null, null, i32 0, metadata !65, i32 205} ; [ DW_TAG_subprogram ]
!327 = metadata !{i32 786453, i32 0, metadata !"", i32 0, i32 0, i64 0, i64 0, i64 0, i32 0, null, metadata !328, i32 0, i32 0} ; [ DW_TAG_subroutine_type ]
!328 = metadata !{null, metadata !298, metadata !108}
!329 = metadata !{i32 786478, i32 0, metadata !48, metadata !"ap_uint", metadata !"ap_uint", metadata !"", metadata !49, i32 206, metadata !330, i1 false, i1 false, i32 0, i32 0, null, i32 256, i1 false, null, null, i32 0, metadata !65, i32 206} ; [ DW_TAG_subprogram ]
!330 = metadata !{i32 786453, i32 0, metadata !"", i32 0, i32 0, i64 0, i64 0, i64 0, i32 0, null, metadata !331, i32 0, i32 0} ; [ DW_TAG_subroutine_type ]
!331 = metadata !{null, metadata !298, metadata !112}
!332 = metadata !{i32 786478, i32 0, metadata !48, metadata !"ap_uint", metadata !"ap_uint", metadata !"", metadata !49, i32 207, metadata !333, i1 false, i1 false, i32 0, i32 0, null, i32 256, i1 false, null, null, i32 0, metadata !65, i32 207} ; [ DW_TAG_subprogram ]
!333 = metadata !{i32 786453, i32 0, metadata !"", i32 0, i32 0, i64 0, i64 0, i64 0, i32 0, null, metadata !334, i32 0, i32 0} ; [ DW_TAG_subroutine_type ]
!334 = metadata !{null, metadata !298, metadata !116}
!335 = metadata !{i32 786478, i32 0, metadata !48, metadata !"ap_uint", metadata !"ap_uint", metadata !"", metadata !49, i32 208, metadata !336, i1 false, i1 false, i32 0, i32 0, null, i32 256, i1 false, null, null, i32 0, metadata !65, i32 208} ; [ DW_TAG_subprogram ]
!336 = metadata !{i32 786453, i32 0, metadata !"", i32 0, i32 0, i64 0, i64 0, i64 0, i32 0, null, metadata !337, i32 0, i32 0} ; [ DW_TAG_subroutine_type ]
!337 = metadata !{null, metadata !298, metadata !126}
!338 = metadata !{i32 786478, i32 0, metadata !48, metadata !"ap_uint", metadata !"ap_uint", metadata !"", metadata !49, i32 209, metadata !339, i1 false, i1 false, i32 0, i32 0, null, i32 256, i1 false, null, null, i32 0, metadata !65, i32 209} ; [ DW_TAG_subprogram ]
!339 = metadata !{i32 786453, i32 0, metadata !"", i32 0, i32 0, i64 0, i64 0, i64 0, i32 0, null, metadata !340, i32 0, i32 0} ; [ DW_TAG_subroutine_type ]
!340 = metadata !{null, metadata !298, metadata !121}
!341 = metadata !{i32 786478, i32 0, metadata !48, metadata !"ap_uint", metadata !"ap_uint", metadata !"", metadata !49, i32 210, metadata !342, i1 false, i1 false, i32 0, i32 0, null, i32 256, i1 false, null, null, i32 0, metadata !65, i32 210} ; [ DW_TAG_subprogram ]
!342 = metadata !{i32 786453, i32 0, metadata !"", i32 0, i32 0, i64 0, i64 0, i64 0, i32 0, null, metadata !343, i32 0, i32 0} ; [ DW_TAG_subroutine_type ]
!343 = metadata !{null, metadata !298, metadata !130}
!344 = metadata !{i32 786478, i32 0, metadata !48, metadata !"ap_uint", metadata !"ap_uint", metadata !"", metadata !49, i32 211, metadata !345, i1 false, i1 false, i32 0, i32 0, null, i32 256, i1 false, null, null, i32 0, metadata !65, i32 211} ; [ DW_TAG_subprogram ]
!345 = metadata !{i32 786453, i32 0, metadata !"", i32 0, i32 0, i64 0, i64 0, i64 0, i32 0, null, metadata !346, i32 0, i32 0} ; [ DW_TAG_subroutine_type ]
!346 = metadata !{null, metadata !298, metadata !134}
!347 = metadata !{i32 786478, i32 0, metadata !48, metadata !"ap_uint", metadata !"ap_uint", metadata !"", metadata !49, i32 213, metadata !348, i1 false, i1 false, i32 0, i32 0, null, i32 256, i1 false, null, null, i32 0, metadata !65, i32 213} ; [ DW_TAG_subprogram ]
!348 = metadata !{i32 786453, i32 0, metadata !"", i32 0, i32 0, i64 0, i64 0, i64 0, i32 0, null, metadata !349, i32 0, i32 0} ; [ DW_TAG_subroutine_type ]
!349 = metadata !{null, metadata !298, metadata !138}
!350 = metadata !{i32 786478, i32 0, metadata !48, metadata !"ap_uint", metadata !"ap_uint", metadata !"", metadata !49, i32 214, metadata !351, i1 false, i1 false, i32 0, i32 0, null, i32 256, i1 false, null, null, i32 0, metadata !65, i32 214} ; [ DW_TAG_subprogram ]
!351 = metadata !{i32 786453, i32 0, metadata !"", i32 0, i32 0, i64 0, i64 0, i64 0, i32 0, null, metadata !352, i32 0, i32 0} ; [ DW_TAG_subroutine_type ]
!352 = metadata !{null, metadata !298, metadata !138, metadata !89}
!353 = metadata !{i32 786478, i32 0, metadata !48, metadata !"operator=", metadata !"operator=", metadata !"_ZNV7ap_uintILi4EEaSERKS0_", metadata !49, i32 217, metadata !354, i1 false, i1 false, i32 0, i32 0, null, i32 256, i1 false, null, null, i32 0, metadata !65, i32 217} ; [ DW_TAG_subprogram ]
!354 = metadata !{i32 786453, i32 0, metadata !"", i32 0, i32 0, i64 0, i64 0, i64 0, i32 0, null, metadata !355, i32 0, i32 0} ; [ DW_TAG_subroutine_type ]
!355 = metadata !{null, metadata !356, metadata !302}
!356 = metadata !{i32 786447, i32 0, metadata !"", i32 0, i32 0, i64 64, i64 64, i64 0, i32 64, metadata !357} ; [ DW_TAG_pointer_type ]
!357 = metadata !{i32 786485, null, metadata !"", null, i32 0, i64 0, i64 0, i64 0, i32 0, metadata !48} ; [ DW_TAG_volatile_type ]
!358 = metadata !{i32 786478, i32 0, metadata !48, metadata !"operator=", metadata !"operator=", metadata !"_ZNV7ap_uintILi4EEaSERVKS0_", metadata !49, i32 221, metadata !354, i1 false, i1 false, i32 0, i32 0, null, i32 256, i1 false, null, null, i32 0, metadata !65, i32 221} ; [ DW_TAG_subprogram ]
!359 = metadata !{i32 786478, i32 0, metadata !48, metadata !"operator=", metadata !"operator=", metadata !"_ZN7ap_uintILi4EEaSERVKS0_", metadata !49, i32 225, metadata !360, i1 false, i1 false, i32 0, i32 0, null, i32 256, i1 false, null, null, i32 0, metadata !65, i32 225} ; [ DW_TAG_subprogram ]
!360 = metadata !{i32 786453, i32 0, metadata !"", i32 0, i32 0, i64 0, i64 0, i64 0, i32 0, null, metadata !361, i32 0, i32 0} ; [ DW_TAG_subroutine_type ]
!361 = metadata !{metadata !302, metadata !298, metadata !302}
!362 = metadata !{i32 786478, i32 0, metadata !48, metadata !"operator=", metadata !"operator=", metadata !"_ZN7ap_uintILi4EEaSERKS0_", metadata !49, i32 230, metadata !360, i1 false, i1 false, i32 0, i32 0, null, i32 256, i1 false, null, null, i32 0, metadata !65, i32 230} ; [ DW_TAG_subprogram ]
!363 = metadata !{i32 786478, i32 0, metadata !48, metadata !"~ap_uint", metadata !"~ap_uint", metadata !"", metadata !49, i32 134, metadata !296, i1 false, i1 false, i32 0, i32 0, null, i32 320, i1 false, null, null, i32 0, metadata !65, i32 134} ; [ DW_TAG_subprogram ]
!364 = metadata !{i32 786474, metadata !48, null, metadata !49, i32 0, i64 0, i64 0, i64 0, i32 0, metadata !365} ; [ DW_TAG_friend ]
!365 = metadata !{i32 786434, null, metadata !"aesl_keep_name_class", metadata !41, i32 36, i64 8, i64 8, i32 0, i32 0, null, metadata !176, i32 0, null, null} ; [ DW_TAG_class_type ]
!366 = metadata !{metadata !294}
!367 = metadata !{i32 786447, null, metadata !"", null, i32 0, i64 64, i64 64, i64 0, i32 0, metadata !368} ; [ DW_TAG_pointer_type ]
!368 = metadata !{i32 786485, null, metadata !"", null, i32 0, i64 0, i64 0, i64 0, i32 0, metadata !369} ; [ DW_TAG_volatile_type ]
!369 = metadata !{i32 786454, null, metadata !"cmd", metadata !41, i32 20, i64 0, i64 0, i64 0, i32 0, metadata !370} ; [ DW_TAG_typedef ]
!370 = metadata !{i32 786434, null, metadata !"ap_uint<2>", metadata !49, i32 134, i64 8, i64 8, i32 0, i32 0, null, metadata !371, i32 0, null, metadata !676} ; [ DW_TAG_class_type ]
!371 = metadata !{metadata !372, metadata !614, metadata !618, metadata !621, metadata !624, metadata !627, metadata !630, metadata !633, metadata !636, metadata !639, metadata !642, metadata !645, metadata !648, metadata !651, metadata !654, metadata !657, metadata !660, metadata !663, metadata !669, metadata !670, metadata !673, metadata !674, metadata !675, metadata !675}
!372 = metadata !{i32 786460, metadata !370, null, metadata !49, i32 0, i64 0, i64 0, i64 0, i32 0, metadata !373} ; [ DW_TAG_inheritance ]
!373 = metadata !{i32 786434, null, metadata !"ap_int_base<2, false, true>", metadata !53, i32 1302, i64 8, i64 8, i32 0, i32 0, null, metadata !374, i32 0, null, metadata !586} ; [ DW_TAG_class_type ]
!374 = metadata !{metadata !375, metadata !386, metadata !390, metadata !396, metadata !397, metadata !400, metadata !403, metadata !406, metadata !409, metadata !412, metadata !415, metadata !418, metadata !421, metadata !424, metadata !427, metadata !430, metadata !433, metadata !436, metadata !439, metadata !442, metadata !447, metadata !450, metadata !451, metadata !452, metadata !455, metadata !456, metadata !459, metadata !462, metadata !465, metadata !468, metadata !474, metadata !477, metadata !480, metadata !483, metadata !486, metadata !489, metadata !492, metadata !495, metadata !498, metadata !499, metadata !504, metadata !507, metadata !508, metadata !509, metadata !510, metadata !511, metadata !512, metadata !515, metadata !516, metadata !519, metadata !520, metadata !521, metadata !522, metadata !523, metadata !524, metadata !527, metadata !528, metadata !529, metadata !532, metadata !533, metadata !536, metadata !537, metadata !541, metadata !545, metadata !546, metadata !549, metadata !550, metadata !588, metadata !589, metadata !590, metadata !591, metadata !594, metadata !595, metadata !596, metadata !597, metadata !598, metadata !599, metadata !600, metadata !601, metadata !602, metadata !603, metadata !604, metadata !605, metadata !608, metadata !611}
!375 = metadata !{i32 786460, metadata !373, null, metadata !53, i32 0, i64 0, i64 0, i64 0, i32 0, metadata !376} ; [ DW_TAG_inheritance ]
!376 = metadata !{i32 786434, null, metadata !"ssdm_int<2 + 1024 * 0, false>", metadata !57, i32 4, i64 8, i64 8, i32 0, i32 0, null, metadata !377, i32 0, null, metadata !384} ; [ DW_TAG_class_type ]
!377 = metadata !{metadata !378, metadata !380}
!378 = metadata !{i32 786445, metadata !376, metadata !"V", metadata !57, i32 4, i64 2, i64 2, i64 0, i32 0, metadata !379} ; [ DW_TAG_member ]
!379 = metadata !{i32 786468, null, metadata !"uint2", null, i32 0, i64 2, i64 2, i64 0, i32 0, i32 7} ; [ DW_TAG_base_type ]
!380 = metadata !{i32 786478, i32 0, metadata !376, metadata !"ssdm_int", metadata !"ssdm_int", metadata !"", metadata !57, i32 4, metadata !381, i1 false, i1 false, i32 0, i32 0, null, i32 256, i1 false, null, null, i32 0, metadata !65, i32 4} ; [ DW_TAG_subprogram ]
!381 = metadata !{i32 786453, i32 0, metadata !"", i32 0, i32 0, i64 0, i64 0, i64 0, i32 0, null, metadata !382, i32 0, i32 0} ; [ DW_TAG_subroutine_type ]
!382 = metadata !{null, metadata !383}
!383 = metadata !{i32 786447, i32 0, metadata !"", i32 0, i32 0, i64 64, i64 64, i64 0, i32 64, metadata !376} ; [ DW_TAG_pointer_type ]
!384 = metadata !{metadata !385, metadata !70}
!385 = metadata !{i32 786480, null, metadata !"_AP_N", metadata !69, i64 2, null, i32 0, i32 0} ; [ DW_TAG_template_value_parameter ]
!386 = metadata !{i32 786478, i32 0, metadata !373, metadata !"ap_int_base", metadata !"ap_int_base", metadata !"", metadata !53, i32 1340, metadata !387, i1 false, i1 false, i32 0, i32 0, null, i32 256, i1 false, null, null, i32 0, metadata !65, i32 1340} ; [ DW_TAG_subprogram ]
!387 = metadata !{i32 786453, i32 0, metadata !"", i32 0, i32 0, i64 0, i64 0, i64 0, i32 0, null, metadata !388, i32 0, i32 0} ; [ DW_TAG_subroutine_type ]
!388 = metadata !{null, metadata !389}
!389 = metadata !{i32 786447, i32 0, metadata !"", i32 0, i32 0, i64 64, i64 64, i64 0, i32 64, metadata !373} ; [ DW_TAG_pointer_type ]
!390 = metadata !{i32 786478, i32 0, metadata !373, metadata !"ap_int_base<2, false>", metadata !"ap_int_base<2, false>", metadata !"", metadata !53, i32 1352, metadata !391, i1 false, i1 false, i32 0, i32 0, null, i32 256, i1 false, null, metadata !394, i32 0, metadata !65, i32 1352} ; [ DW_TAG_subprogram ]
!391 = metadata !{i32 786453, i32 0, metadata !"", i32 0, i32 0, i64 0, i64 0, i64 0, i32 0, null, metadata !392, i32 0, i32 0} ; [ DW_TAG_subroutine_type ]
!392 = metadata !{null, metadata !389, metadata !393}
!393 = metadata !{i32 786448, null, null, null, i32 0, i64 0, i64 0, i64 0, i32 0, metadata !373} ; [ DW_TAG_reference_type ]
!394 = metadata !{metadata !395, metadata !81}
!395 = metadata !{i32 786480, null, metadata !"_AP_W2", metadata !69, i64 2, null, i32 0, i32 0} ; [ DW_TAG_template_value_parameter ]
!396 = metadata !{i32 786478, i32 0, metadata !373, metadata !"ap_int_base<2, false>", metadata !"ap_int_base<2, false>", metadata !"", metadata !53, i32 1355, metadata !391, i1 false, i1 false, i32 0, i32 0, null, i32 256, i1 false, null, metadata !394, i32 0, metadata !65, i32 1355} ; [ DW_TAG_subprogram ]
!397 = metadata !{i32 786478, i32 0, metadata !373, metadata !"ap_int_base", metadata !"ap_int_base", metadata !"", metadata !53, i32 1362, metadata !398, i1 false, i1 false, i32 0, i32 0, null, i32 384, i1 false, null, null, i32 0, metadata !65, i32 1362} ; [ DW_TAG_subprogram ]
!398 = metadata !{i32 786453, i32 0, metadata !"", i32 0, i32 0, i64 0, i64 0, i64 0, i32 0, null, metadata !399, i32 0, i32 0} ; [ DW_TAG_subroutine_type ]
!399 = metadata !{null, metadata !389, metadata !44}
!400 = metadata !{i32 786478, i32 0, metadata !373, metadata !"ap_int_base", metadata !"ap_int_base", metadata !"", metadata !53, i32 1363, metadata !401, i1 false, i1 false, i32 0, i32 0, null, i32 384, i1 false, null, null, i32 0, metadata !65, i32 1363} ; [ DW_TAG_subprogram ]
!401 = metadata !{i32 786453, i32 0, metadata !"", i32 0, i32 0, i64 0, i64 0, i64 0, i32 0, null, metadata !402, i32 0, i32 0} ; [ DW_TAG_subroutine_type ]
!402 = metadata !{null, metadata !389, metadata !89}
!403 = metadata !{i32 786478, i32 0, metadata !373, metadata !"ap_int_base", metadata !"ap_int_base", metadata !"", metadata !53, i32 1364, metadata !404, i1 false, i1 false, i32 0, i32 0, null, i32 384, i1 false, null, null, i32 0, metadata !65, i32 1364} ; [ DW_TAG_subprogram ]
!404 = metadata !{i32 786453, i32 0, metadata !"", i32 0, i32 0, i64 0, i64 0, i64 0, i32 0, null, metadata !405, i32 0, i32 0} ; [ DW_TAG_subroutine_type ]
!405 = metadata !{null, metadata !389, metadata !93}
!406 = metadata !{i32 786478, i32 0, metadata !373, metadata !"ap_int_base", metadata !"ap_int_base", metadata !"", metadata !53, i32 1365, metadata !407, i1 false, i1 false, i32 0, i32 0, null, i32 384, i1 false, null, null, i32 0, metadata !65, i32 1365} ; [ DW_TAG_subprogram ]
!407 = metadata !{i32 786453, i32 0, metadata !"", i32 0, i32 0, i64 0, i64 0, i64 0, i32 0, null, metadata !408, i32 0, i32 0} ; [ DW_TAG_subroutine_type ]
!408 = metadata !{null, metadata !389, metadata !97}
!409 = metadata !{i32 786478, i32 0, metadata !373, metadata !"ap_int_base", metadata !"ap_int_base", metadata !"", metadata !53, i32 1366, metadata !410, i1 false, i1 false, i32 0, i32 0, null, i32 384, i1 false, null, null, i32 0, metadata !65, i32 1366} ; [ DW_TAG_subprogram ]
!410 = metadata !{i32 786453, i32 0, metadata !"", i32 0, i32 0, i64 0, i64 0, i64 0, i32 0, null, metadata !411, i32 0, i32 0} ; [ DW_TAG_subroutine_type ]
!411 = metadata !{null, metadata !389, metadata !101}
!412 = metadata !{i32 786478, i32 0, metadata !373, metadata !"ap_int_base", metadata !"ap_int_base", metadata !"", metadata !53, i32 1367, metadata !413, i1 false, i1 false, i32 0, i32 0, null, i32 384, i1 false, null, null, i32 0, metadata !65, i32 1367} ; [ DW_TAG_subprogram ]
!413 = metadata !{i32 786453, i32 0, metadata !"", i32 0, i32 0, i64 0, i64 0, i64 0, i32 0, null, metadata !414, i32 0, i32 0} ; [ DW_TAG_subroutine_type ]
!414 = metadata !{null, metadata !389, metadata !69}
!415 = metadata !{i32 786478, i32 0, metadata !373, metadata !"ap_int_base", metadata !"ap_int_base", metadata !"", metadata !53, i32 1368, metadata !416, i1 false, i1 false, i32 0, i32 0, null, i32 384, i1 false, null, null, i32 0, metadata !65, i32 1368} ; [ DW_TAG_subprogram ]
!416 = metadata !{i32 786453, i32 0, metadata !"", i32 0, i32 0, i64 0, i64 0, i64 0, i32 0, null, metadata !417, i32 0, i32 0} ; [ DW_TAG_subroutine_type ]
!417 = metadata !{null, metadata !389, metadata !108}
!418 = metadata !{i32 786478, i32 0, metadata !373, metadata !"ap_int_base", metadata !"ap_int_base", metadata !"", metadata !53, i32 1369, metadata !419, i1 false, i1 false, i32 0, i32 0, null, i32 384, i1 false, null, null, i32 0, metadata !65, i32 1369} ; [ DW_TAG_subprogram ]
!419 = metadata !{i32 786453, i32 0, metadata !"", i32 0, i32 0, i64 0, i64 0, i64 0, i32 0, null, metadata !420, i32 0, i32 0} ; [ DW_TAG_subroutine_type ]
!420 = metadata !{null, metadata !389, metadata !112}
!421 = metadata !{i32 786478, i32 0, metadata !373, metadata !"ap_int_base", metadata !"ap_int_base", metadata !"", metadata !53, i32 1370, metadata !422, i1 false, i1 false, i32 0, i32 0, null, i32 384, i1 false, null, null, i32 0, metadata !65, i32 1370} ; [ DW_TAG_subprogram ]
!422 = metadata !{i32 786453, i32 0, metadata !"", i32 0, i32 0, i64 0, i64 0, i64 0, i32 0, null, metadata !423, i32 0, i32 0} ; [ DW_TAG_subroutine_type ]
!423 = metadata !{null, metadata !389, metadata !116}
!424 = metadata !{i32 786478, i32 0, metadata !373, metadata !"ap_int_base", metadata !"ap_int_base", metadata !"", metadata !53, i32 1371, metadata !425, i1 false, i1 false, i32 0, i32 0, null, i32 384, i1 false, null, null, i32 0, metadata !65, i32 1371} ; [ DW_TAG_subprogram ]
!425 = metadata !{i32 786453, i32 0, metadata !"", i32 0, i32 0, i64 0, i64 0, i64 0, i32 0, null, metadata !426, i32 0, i32 0} ; [ DW_TAG_subroutine_type ]
!426 = metadata !{null, metadata !389, metadata !120}
!427 = metadata !{i32 786478, i32 0, metadata !373, metadata !"ap_int_base", metadata !"ap_int_base", metadata !"", metadata !53, i32 1372, metadata !428, i1 false, i1 false, i32 0, i32 0, null, i32 384, i1 false, null, null, i32 0, metadata !65, i32 1372} ; [ DW_TAG_subprogram ]
!428 = metadata !{i32 786453, i32 0, metadata !"", i32 0, i32 0, i64 0, i64 0, i64 0, i32 0, null, metadata !429, i32 0, i32 0} ; [ DW_TAG_subroutine_type ]
!429 = metadata !{null, metadata !389, metadata !125}
!430 = metadata !{i32 786478, i32 0, metadata !373, metadata !"ap_int_base", metadata !"ap_int_base", metadata !"", metadata !53, i32 1373, metadata !431, i1 false, i1 false, i32 0, i32 0, null, i32 384, i1 false, null, null, i32 0, metadata !65, i32 1373} ; [ DW_TAG_subprogram ]
!431 = metadata !{i32 786453, i32 0, metadata !"", i32 0, i32 0, i64 0, i64 0, i64 0, i32 0, null, metadata !432, i32 0, i32 0} ; [ DW_TAG_subroutine_type ]
!432 = metadata !{null, metadata !389, metadata !130}
!433 = metadata !{i32 786478, i32 0, metadata !373, metadata !"ap_int_base", metadata !"ap_int_base", metadata !"", metadata !53, i32 1374, metadata !434, i1 false, i1 false, i32 0, i32 0, null, i32 384, i1 false, null, null, i32 0, metadata !65, i32 1374} ; [ DW_TAG_subprogram ]
!434 = metadata !{i32 786453, i32 0, metadata !"", i32 0, i32 0, i64 0, i64 0, i64 0, i32 0, null, metadata !435, i32 0, i32 0} ; [ DW_TAG_subroutine_type ]
!435 = metadata !{null, metadata !389, metadata !134}
!436 = metadata !{i32 786478, i32 0, metadata !373, metadata !"ap_int_base", metadata !"ap_int_base", metadata !"", metadata !53, i32 1401, metadata !437, i1 false, i1 false, i32 0, i32 0, null, i32 256, i1 false, null, null, i32 0, metadata !65, i32 1401} ; [ DW_TAG_subprogram ]
!437 = metadata !{i32 786453, i32 0, metadata !"", i32 0, i32 0, i64 0, i64 0, i64 0, i32 0, null, metadata !438, i32 0, i32 0} ; [ DW_TAG_subroutine_type ]
!438 = metadata !{null, metadata !389, metadata !138}
!439 = metadata !{i32 786478, i32 0, metadata !373, metadata !"ap_int_base", metadata !"ap_int_base", metadata !"", metadata !53, i32 1408, metadata !440, i1 false, i1 false, i32 0, i32 0, null, i32 256, i1 false, null, null, i32 0, metadata !65, i32 1408} ; [ DW_TAG_subprogram ]
!440 = metadata !{i32 786453, i32 0, metadata !"", i32 0, i32 0, i64 0, i64 0, i64 0, i32 0, null, metadata !441, i32 0, i32 0} ; [ DW_TAG_subroutine_type ]
!441 = metadata !{null, metadata !389, metadata !138, metadata !89}
!442 = metadata !{i32 786478, i32 0, metadata !373, metadata !"read", metadata !"read", metadata !"_ZNV11ap_int_baseILi2ELb0ELb1EE4readEv", metadata !53, i32 1429, metadata !443, i1 false, i1 false, i32 0, i32 0, null, i32 256, i1 false, null, null, i32 0, metadata !65, i32 1429} ; [ DW_TAG_subprogram ]
!443 = metadata !{i32 786453, i32 0, metadata !"", i32 0, i32 0, i64 0, i64 0, i64 0, i32 0, null, metadata !444, i32 0, i32 0} ; [ DW_TAG_subroutine_type ]
!444 = metadata !{metadata !373, metadata !445}
!445 = metadata !{i32 786447, i32 0, metadata !"", i32 0, i32 0, i64 64, i64 64, i64 0, i32 64, metadata !446} ; [ DW_TAG_pointer_type ]
!446 = metadata !{i32 786485, null, metadata !"", null, i32 0, i64 0, i64 0, i64 0, i32 0, metadata !373} ; [ DW_TAG_volatile_type ]
!447 = metadata !{i32 786478, i32 0, metadata !373, metadata !"write", metadata !"write", metadata !"_ZNV11ap_int_baseILi2ELb0ELb1EE5writeERKS0_", metadata !53, i32 1435, metadata !448, i1 false, i1 false, i32 0, i32 0, null, i32 256, i1 false, null, null, i32 0, metadata !65, i32 1435} ; [ DW_TAG_subprogram ]
!448 = metadata !{i32 786453, i32 0, metadata !"", i32 0, i32 0, i64 0, i64 0, i64 0, i32 0, null, metadata !449, i32 0, i32 0} ; [ DW_TAG_subroutine_type ]
!449 = metadata !{null, metadata !445, metadata !393}
!450 = metadata !{i32 786478, i32 0, metadata !373, metadata !"operator=", metadata !"operator=", metadata !"_ZNV11ap_int_baseILi2ELb0ELb1EEaSERVKS0_", metadata !53, i32 1447, metadata !448, i1 false, i1 false, i32 0, i32 0, null, i32 256, i1 false, null, null, i32 0, metadata !65, i32 1447} ; [ DW_TAG_subprogram ]
!451 = metadata !{i32 786478, i32 0, metadata !373, metadata !"operator=", metadata !"operator=", metadata !"_ZNV11ap_int_baseILi2ELb0ELb1EEaSERKS0_", metadata !53, i32 1456, metadata !448, i1 false, i1 false, i32 0, i32 0, null, i32 256, i1 false, null, null, i32 0, metadata !65, i32 1456} ; [ DW_TAG_subprogram ]
!452 = metadata !{i32 786478, i32 0, metadata !373, metadata !"operator=", metadata !"operator=", metadata !"_ZN11ap_int_baseILi2ELb0ELb1EEaSERVKS0_", metadata !53, i32 1479, metadata !453, i1 false, i1 false, i32 0, i32 0, null, i32 256, i1 false, null, null, i32 0, metadata !65, i32 1479} ; [ DW_TAG_subprogram ]
!453 = metadata !{i32 786453, i32 0, metadata !"", i32 0, i32 0, i64 0, i64 0, i64 0, i32 0, null, metadata !454, i32 0, i32 0} ; [ DW_TAG_subroutine_type ]
!454 = metadata !{metadata !393, metadata !389, metadata !393}
!455 = metadata !{i32 786478, i32 0, metadata !373, metadata !"operator=", metadata !"operator=", metadata !"_ZN11ap_int_baseILi2ELb0ELb1EEaSERKS0_", metadata !53, i32 1484, metadata !453, i1 false, i1 false, i32 0, i32 0, null, i32 256, i1 false, null, null, i32 0, metadata !65, i32 1484} ; [ DW_TAG_subprogram ]
!456 = metadata !{i32 786478, i32 0, metadata !373, metadata !"operator=", metadata !"operator=", metadata !"_ZN11ap_int_baseILi2ELb0ELb1EEaSEPKc", metadata !53, i32 1488, metadata !457, i1 false, i1 false, i32 0, i32 0, null, i32 256, i1 false, null, null, i32 0, metadata !65, i32 1488} ; [ DW_TAG_subprogram ]
!457 = metadata !{i32 786453, i32 0, metadata !"", i32 0, i32 0, i64 0, i64 0, i64 0, i32 0, null, metadata !458, i32 0, i32 0} ; [ DW_TAG_subroutine_type ]
!458 = metadata !{metadata !393, metadata !389, metadata !138}
!459 = metadata !{i32 786478, i32 0, metadata !373, metadata !"set", metadata !"set", metadata !"_ZN11ap_int_baseILi2ELb0ELb1EE3setEPKca", metadata !53, i32 1496, metadata !460, i1 false, i1 false, i32 0, i32 0, null, i32 256, i1 false, null, null, i32 0, metadata !65, i32 1496} ; [ DW_TAG_subprogram ]
!460 = metadata !{i32 786453, i32 0, metadata !"", i32 0, i32 0, i64 0, i64 0, i64 0, i32 0, null, metadata !461, i32 0, i32 0} ; [ DW_TAG_subroutine_type ]
!461 = metadata !{metadata !393, metadata !389, metadata !138, metadata !89}
!462 = metadata !{i32 786478, i32 0, metadata !373, metadata !"operator=", metadata !"operator=", metadata !"_ZN11ap_int_baseILi2ELb0ELb1EEaSEy", metadata !53, i32 1505, metadata !463, i1 false, i1 false, i32 0, i32 0, null, i32 256, i1 false, null, null, i32 0, metadata !65, i32 1505} ; [ DW_TAG_subprogram ]
!463 = metadata !{i32 786453, i32 0, metadata !"", i32 0, i32 0, i64 0, i64 0, i64 0, i32 0, null, metadata !464, i32 0, i32 0} ; [ DW_TAG_subroutine_type ]
!464 = metadata !{metadata !393, metadata !389, metadata !126}
!465 = metadata !{i32 786478, i32 0, metadata !373, metadata !"operator=", metadata !"operator=", metadata !"_ZN11ap_int_baseILi2ELb0ELb1EEaSEx", metadata !53, i32 1510, metadata !466, i1 false, i1 false, i32 0, i32 0, null, i32 256, i1 false, null, null, i32 0, metadata !65, i32 1510} ; [ DW_TAG_subprogram ]
!466 = metadata !{i32 786453, i32 0, metadata !"", i32 0, i32 0, i64 0, i64 0, i64 0, i32 0, null, metadata !467, i32 0, i32 0} ; [ DW_TAG_subroutine_type ]
!467 = metadata !{metadata !393, metadata !389, metadata !121}
!468 = metadata !{i32 786478, i32 0, metadata !373, metadata !"operator unsigned long long", metadata !"operator unsigned long long", metadata !"_ZNK11ap_int_baseILi2ELb0ELb1EEcvyEv", metadata !53, i32 1551, metadata !469, i1 false, i1 false, i32 0, i32 0, null, i32 256, i1 false, null, null, i32 0, metadata !65, i32 1551} ; [ DW_TAG_subprogram ]
!469 = metadata !{i32 786453, i32 0, metadata !"", i32 0, i32 0, i64 0, i64 0, i64 0, i32 0, null, metadata !470, i32 0, i32 0} ; [ DW_TAG_subroutine_type ]
!470 = metadata !{metadata !471, metadata !472}
!471 = metadata !{i32 786454, metadata !373, metadata !"RetType", metadata !53, i32 1307, i64 0, i64 0, i64 0, i32 0, metadata !174} ; [ DW_TAG_typedef ]
!472 = metadata !{i32 786447, i32 0, metadata !"", i32 0, i32 0, i64 64, i64 64, i64 0, i32 64, metadata !473} ; [ DW_TAG_pointer_type ]
!473 = metadata !{i32 786470, null, metadata !"", null, i32 0, i64 0, i64 0, i64 0, i32 0, metadata !373} ; [ DW_TAG_const_type ]
!474 = metadata !{i32 786478, i32 0, metadata !373, metadata !"to_bool", metadata !"to_bool", metadata !"_ZNK11ap_int_baseILi2ELb0ELb1EE7to_boolEv", metadata !53, i32 1557, metadata !475, i1 false, i1 false, i32 0, i32 0, null, i32 256, i1 false, null, null, i32 0, metadata !65, i32 1557} ; [ DW_TAG_subprogram ]
!475 = metadata !{i32 786453, i32 0, metadata !"", i32 0, i32 0, i64 0, i64 0, i64 0, i32 0, null, metadata !476, i32 0, i32 0} ; [ DW_TAG_subroutine_type ]
!476 = metadata !{metadata !44, metadata !472}
!477 = metadata !{i32 786478, i32 0, metadata !373, metadata !"to_int", metadata !"to_int", metadata !"_ZNK11ap_int_baseILi2ELb0ELb1EE6to_intEv", metadata !53, i32 1558, metadata !478, i1 false, i1 false, i32 0, i32 0, null, i32 256, i1 false, null, null, i32 0, metadata !65, i32 1558} ; [ DW_TAG_subprogram ]
!478 = metadata !{i32 786453, i32 0, metadata !"", i32 0, i32 0, i64 0, i64 0, i64 0, i32 0, null, metadata !479, i32 0, i32 0} ; [ DW_TAG_subroutine_type ]
!479 = metadata !{metadata !69, metadata !472}
!480 = metadata !{i32 786478, i32 0, metadata !373, metadata !"to_uint", metadata !"to_uint", metadata !"_ZNK11ap_int_baseILi2ELb0ELb1EE7to_uintEv", metadata !53, i32 1559, metadata !481, i1 false, i1 false, i32 0, i32 0, null, i32 256, i1 false, null, null, i32 0, metadata !65, i32 1559} ; [ DW_TAG_subprogram ]
!481 = metadata !{i32 786453, i32 0, metadata !"", i32 0, i32 0, i64 0, i64 0, i64 0, i32 0, null, metadata !482, i32 0, i32 0} ; [ DW_TAG_subroutine_type ]
!482 = metadata !{metadata !108, metadata !472}
!483 = metadata !{i32 786478, i32 0, metadata !373, metadata !"to_long", metadata !"to_long", metadata !"_ZNK11ap_int_baseILi2ELb0ELb1EE7to_longEv", metadata !53, i32 1560, metadata !484, i1 false, i1 false, i32 0, i32 0, null, i32 256, i1 false, null, null, i32 0, metadata !65, i32 1560} ; [ DW_TAG_subprogram ]
!484 = metadata !{i32 786453, i32 0, metadata !"", i32 0, i32 0, i64 0, i64 0, i64 0, i32 0, null, metadata !485, i32 0, i32 0} ; [ DW_TAG_subroutine_type ]
!485 = metadata !{metadata !112, metadata !472}
!486 = metadata !{i32 786478, i32 0, metadata !373, metadata !"to_ulong", metadata !"to_ulong", metadata !"_ZNK11ap_int_baseILi2ELb0ELb1EE8to_ulongEv", metadata !53, i32 1561, metadata !487, i1 false, i1 false, i32 0, i32 0, null, i32 256, i1 false, null, null, i32 0, metadata !65, i32 1561} ; [ DW_TAG_subprogram ]
!487 = metadata !{i32 786453, i32 0, metadata !"", i32 0, i32 0, i64 0, i64 0, i64 0, i32 0, null, metadata !488, i32 0, i32 0} ; [ DW_TAG_subroutine_type ]
!488 = metadata !{metadata !116, metadata !472}
!489 = metadata !{i32 786478, i32 0, metadata !373, metadata !"to_int64", metadata !"to_int64", metadata !"_ZNK11ap_int_baseILi2ELb0ELb1EE8to_int64Ev", metadata !53, i32 1562, metadata !490, i1 false, i1 false, i32 0, i32 0, null, i32 256, i1 false, null, null, i32 0, metadata !65, i32 1562} ; [ DW_TAG_subprogram ]
!490 = metadata !{i32 786453, i32 0, metadata !"", i32 0, i32 0, i64 0, i64 0, i64 0, i32 0, null, metadata !491, i32 0, i32 0} ; [ DW_TAG_subroutine_type ]
!491 = metadata !{metadata !120, metadata !472}
!492 = metadata !{i32 786478, i32 0, metadata !373, metadata !"to_uint64", metadata !"to_uint64", metadata !"_ZNK11ap_int_baseILi2ELb0ELb1EE9to_uint64Ev", metadata !53, i32 1563, metadata !493, i1 false, i1 false, i32 0, i32 0, null, i32 256, i1 false, null, null, i32 0, metadata !65, i32 1563} ; [ DW_TAG_subprogram ]
!493 = metadata !{i32 786453, i32 0, metadata !"", i32 0, i32 0, i64 0, i64 0, i64 0, i32 0, null, metadata !494, i32 0, i32 0} ; [ DW_TAG_subroutine_type ]
!494 = metadata !{metadata !125, metadata !472}
!495 = metadata !{i32 786478, i32 0, metadata !373, metadata !"to_double", metadata !"to_double", metadata !"_ZNK11ap_int_baseILi2ELb0ELb1EE9to_doubleEv", metadata !53, i32 1564, metadata !496, i1 false, i1 false, i32 0, i32 0, null, i32 256, i1 false, null, null, i32 0, metadata !65, i32 1564} ; [ DW_TAG_subprogram ]
!496 = metadata !{i32 786453, i32 0, metadata !"", i32 0, i32 0, i64 0, i64 0, i64 0, i32 0, null, metadata !497, i32 0, i32 0} ; [ DW_TAG_subroutine_type ]
!497 = metadata !{metadata !134, metadata !472}
!498 = metadata !{i32 786478, i32 0, metadata !373, metadata !"length", metadata !"length", metadata !"_ZNK11ap_int_baseILi2ELb0ELb1EE6lengthEv", metadata !53, i32 1577, metadata !478, i1 false, i1 false, i32 0, i32 0, null, i32 256, i1 false, null, null, i32 0, metadata !65, i32 1577} ; [ DW_TAG_subprogram ]
!499 = metadata !{i32 786478, i32 0, metadata !373, metadata !"length", metadata !"length", metadata !"_ZNVK11ap_int_baseILi2ELb0ELb1EE6lengthEv", metadata !53, i32 1578, metadata !500, i1 false, i1 false, i32 0, i32 0, null, i32 256, i1 false, null, null, i32 0, metadata !65, i32 1578} ; [ DW_TAG_subprogram ]
!500 = metadata !{i32 786453, i32 0, metadata !"", i32 0, i32 0, i64 0, i64 0, i64 0, i32 0, null, metadata !501, i32 0, i32 0} ; [ DW_TAG_subroutine_type ]
!501 = metadata !{metadata !69, metadata !502}
!502 = metadata !{i32 786447, i32 0, metadata !"", i32 0, i32 0, i64 64, i64 64, i64 0, i32 64, metadata !503} ; [ DW_TAG_pointer_type ]
!503 = metadata !{i32 786470, null, metadata !"", null, i32 0, i64 0, i64 0, i64 0, i32 0, metadata !446} ; [ DW_TAG_const_type ]
!504 = metadata !{i32 786478, i32 0, metadata !373, metadata !"reverse", metadata !"reverse", metadata !"_ZN11ap_int_baseILi2ELb0ELb1EE7reverseEv", metadata !53, i32 1583, metadata !505, i1 false, i1 false, i32 0, i32 0, null, i32 256, i1 false, null, null, i32 0, metadata !65, i32 1583} ; [ DW_TAG_subprogram ]
!505 = metadata !{i32 786453, i32 0, metadata !"", i32 0, i32 0, i64 0, i64 0, i64 0, i32 0, null, metadata !506, i32 0, i32 0} ; [ DW_TAG_subroutine_type ]
!506 = metadata !{metadata !393, metadata !389}
!507 = metadata !{i32 786478, i32 0, metadata !373, metadata !"iszero", metadata !"iszero", metadata !"_ZNK11ap_int_baseILi2ELb0ELb1EE6iszeroEv", metadata !53, i32 1589, metadata !475, i1 false, i1 false, i32 0, i32 0, null, i32 256, i1 false, null, null, i32 0, metadata !65, i32 1589} ; [ DW_TAG_subprogram ]
!508 = metadata !{i32 786478, i32 0, metadata !373, metadata !"is_zero", metadata !"is_zero", metadata !"_ZNK11ap_int_baseILi2ELb0ELb1EE7is_zeroEv", metadata !53, i32 1594, metadata !475, i1 false, i1 false, i32 0, i32 0, null, i32 256, i1 false, null, null, i32 0, metadata !65, i32 1594} ; [ DW_TAG_subprogram ]
!509 = metadata !{i32 786478, i32 0, metadata !373, metadata !"sign", metadata !"sign", metadata !"_ZNK11ap_int_baseILi2ELb0ELb1EE4signEv", metadata !53, i32 1599, metadata !475, i1 false, i1 false, i32 0, i32 0, null, i32 256, i1 false, null, null, i32 0, metadata !65, i32 1599} ; [ DW_TAG_subprogram ]
!510 = metadata !{i32 786478, i32 0, metadata !373, metadata !"clear", metadata !"clear", metadata !"_ZN11ap_int_baseILi2ELb0ELb1EE5clearEi", metadata !53, i32 1607, metadata !413, i1 false, i1 false, i32 0, i32 0, null, i32 256, i1 false, null, null, i32 0, metadata !65, i32 1607} ; [ DW_TAG_subprogram ]
!511 = metadata !{i32 786478, i32 0, metadata !373, metadata !"invert", metadata !"invert", metadata !"_ZN11ap_int_baseILi2ELb0ELb1EE6invertEi", metadata !53, i32 1613, metadata !413, i1 false, i1 false, i32 0, i32 0, null, i32 256, i1 false, null, null, i32 0, metadata !65, i32 1613} ; [ DW_TAG_subprogram ]
!512 = metadata !{i32 786478, i32 0, metadata !373, metadata !"test", metadata !"test", metadata !"_ZNK11ap_int_baseILi2ELb0ELb1EE4testEi", metadata !53, i32 1621, metadata !513, i1 false, i1 false, i32 0, i32 0, null, i32 256, i1 false, null, null, i32 0, metadata !65, i32 1621} ; [ DW_TAG_subprogram ]
!513 = metadata !{i32 786453, i32 0, metadata !"", i32 0, i32 0, i64 0, i64 0, i64 0, i32 0, null, metadata !514, i32 0, i32 0} ; [ DW_TAG_subroutine_type ]
!514 = metadata !{metadata !44, metadata !472, metadata !69}
!515 = metadata !{i32 786478, i32 0, metadata !373, metadata !"set", metadata !"set", metadata !"_ZN11ap_int_baseILi2ELb0ELb1EE3setEi", metadata !53, i32 1627, metadata !413, i1 false, i1 false, i32 0, i32 0, null, i32 256, i1 false, null, null, i32 0, metadata !65, i32 1627} ; [ DW_TAG_subprogram ]
!516 = metadata !{i32 786478, i32 0, metadata !373, metadata !"set", metadata !"set", metadata !"_ZN11ap_int_baseILi2ELb0ELb1EE3setEib", metadata !53, i32 1633, metadata !517, i1 false, i1 false, i32 0, i32 0, null, i32 256, i1 false, null, null, i32 0, metadata !65, i32 1633} ; [ DW_TAG_subprogram ]
!517 = metadata !{i32 786453, i32 0, metadata !"", i32 0, i32 0, i64 0, i64 0, i64 0, i32 0, null, metadata !518, i32 0, i32 0} ; [ DW_TAG_subroutine_type ]
!518 = metadata !{null, metadata !389, metadata !69, metadata !44}
!519 = metadata !{i32 786478, i32 0, metadata !373, metadata !"lrotate", metadata !"lrotate", metadata !"_ZN11ap_int_baseILi2ELb0ELb1EE7lrotateEi", metadata !53, i32 1640, metadata !413, i1 false, i1 false, i32 0, i32 0, null, i32 256, i1 false, null, null, i32 0, metadata !65, i32 1640} ; [ DW_TAG_subprogram ]
!520 = metadata !{i32 786478, i32 0, metadata !373, metadata !"rrotate", metadata !"rrotate", metadata !"_ZN11ap_int_baseILi2ELb0ELb1EE7rrotateEi", metadata !53, i32 1649, metadata !413, i1 false, i1 false, i32 0, i32 0, null, i32 256, i1 false, null, null, i32 0, metadata !65, i32 1649} ; [ DW_TAG_subprogram ]
!521 = metadata !{i32 786478, i32 0, metadata !373, metadata !"set_bit", metadata !"set_bit", metadata !"_ZN11ap_int_baseILi2ELb0ELb1EE7set_bitEib", metadata !53, i32 1657, metadata !517, i1 false, i1 false, i32 0, i32 0, null, i32 256, i1 false, null, null, i32 0, metadata !65, i32 1657} ; [ DW_TAG_subprogram ]
!522 = metadata !{i32 786478, i32 0, metadata !373, metadata !"get_bit", metadata !"get_bit", metadata !"_ZNK11ap_int_baseILi2ELb0ELb1EE7get_bitEi", metadata !53, i32 1662, metadata !513, i1 false, i1 false, i32 0, i32 0, null, i32 256, i1 false, null, null, i32 0, metadata !65, i32 1662} ; [ DW_TAG_subprogram ]
!523 = metadata !{i32 786478, i32 0, metadata !373, metadata !"b_not", metadata !"b_not", metadata !"_ZN11ap_int_baseILi2ELb0ELb1EE5b_notEv", metadata !53, i32 1667, metadata !387, i1 false, i1 false, i32 0, i32 0, null, i32 256, i1 false, null, null, i32 0, metadata !65, i32 1667} ; [ DW_TAG_subprogram ]
!524 = metadata !{i32 786478, i32 0, metadata !373, metadata !"countLeadingZeros", metadata !"countLeadingZeros", metadata !"_ZN11ap_int_baseILi2ELb0ELb1EE17countLeadingZerosEv", metadata !53, i32 1674, metadata !525, i1 false, i1 false, i32 0, i32 0, null, i32 256, i1 false, null, null, i32 0, metadata !65, i32 1674} ; [ DW_TAG_subprogram ]
!525 = metadata !{i32 786453, i32 0, metadata !"", i32 0, i32 0, i64 0, i64 0, i64 0, i32 0, null, metadata !526, i32 0, i32 0} ; [ DW_TAG_subroutine_type ]
!526 = metadata !{metadata !69, metadata !389}
!527 = metadata !{i32 786478, i32 0, metadata !373, metadata !"operator++", metadata !"operator++", metadata !"_ZN11ap_int_baseILi2ELb0ELb1EEppEv", metadata !53, i32 1731, metadata !505, i1 false, i1 false, i32 0, i32 0, null, i32 256, i1 false, null, null, i32 0, metadata !65, i32 1731} ; [ DW_TAG_subprogram ]
!528 = metadata !{i32 786478, i32 0, metadata !373, metadata !"operator--", metadata !"operator--", metadata !"_ZN11ap_int_baseILi2ELb0ELb1EEmmEv", metadata !53, i32 1735, metadata !505, i1 false, i1 false, i32 0, i32 0, null, i32 256, i1 false, null, null, i32 0, metadata !65, i32 1735} ; [ DW_TAG_subprogram ]
!529 = metadata !{i32 786478, i32 0, metadata !373, metadata !"operator++", metadata !"operator++", metadata !"_ZN11ap_int_baseILi2ELb0ELb1EEppEi", metadata !53, i32 1743, metadata !530, i1 false, i1 false, i32 0, i32 0, null, i32 256, i1 false, null, null, i32 0, metadata !65, i32 1743} ; [ DW_TAG_subprogram ]
!530 = metadata !{i32 786453, i32 0, metadata !"", i32 0, i32 0, i64 0, i64 0, i64 0, i32 0, null, metadata !531, i32 0, i32 0} ; [ DW_TAG_subroutine_type ]
!531 = metadata !{metadata !473, metadata !389, metadata !69}
!532 = metadata !{i32 786478, i32 0, metadata !373, metadata !"operator--", metadata !"operator--", metadata !"_ZN11ap_int_baseILi2ELb0ELb1EEmmEi", metadata !53, i32 1748, metadata !530, i1 false, i1 false, i32 0, i32 0, null, i32 256, i1 false, null, null, i32 0, metadata !65, i32 1748} ; [ DW_TAG_subprogram ]
!533 = metadata !{i32 786478, i32 0, metadata !373, metadata !"operator+", metadata !"operator+", metadata !"_ZNK11ap_int_baseILi2ELb0ELb1EEpsEv", metadata !53, i32 1757, metadata !534, i1 false, i1 false, i32 0, i32 0, null, i32 256, i1 false, null, null, i32 0, metadata !65, i32 1757} ; [ DW_TAG_subprogram ]
!534 = metadata !{i32 786453, i32 0, metadata !"", i32 0, i32 0, i64 0, i64 0, i64 0, i32 0, null, metadata !535, i32 0, i32 0} ; [ DW_TAG_subroutine_type ]
!535 = metadata !{metadata !373, metadata !472}
!536 = metadata !{i32 786478, i32 0, metadata !373, metadata !"operator!", metadata !"operator!", metadata !"_ZNK11ap_int_baseILi2ELb0ELb1EEntEv", metadata !53, i32 1763, metadata !475, i1 false, i1 false, i32 0, i32 0, null, i32 256, i1 false, null, null, i32 0, metadata !65, i32 1763} ; [ DW_TAG_subprogram ]
!537 = metadata !{i32 786478, i32 0, metadata !373, metadata !"operator-", metadata !"operator-", metadata !"_ZNK11ap_int_baseILi2ELb0ELb1EEngEv", metadata !53, i32 1768, metadata !538, i1 false, i1 false, i32 0, i32 0, null, i32 256, i1 false, null, null, i32 0, metadata !65, i32 1768} ; [ DW_TAG_subprogram ]
!538 = metadata !{i32 786453, i32 0, metadata !"", i32 0, i32 0, i64 0, i64 0, i64 0, i32 0, null, metadata !539, i32 0, i32 0} ; [ DW_TAG_subroutine_type ]
!539 = metadata !{metadata !540, metadata !472}
!540 = metadata !{i32 786434, null, metadata !"ap_int_base<3, true, true>", metadata !53, i32 605, i32 0, i32 0, i32 0, i32 4, null, null, i32 0} ; [ DW_TAG_class_type ]
!541 = metadata !{i32 786478, i32 0, metadata !373, metadata !"range", metadata !"range", metadata !"_ZN11ap_int_baseILi2ELb0ELb1EE5rangeEii", metadata !53, i32 1898, metadata !542, i1 false, i1 false, i32 0, i32 0, null, i32 256, i1 false, null, null, i32 0, metadata !65, i32 1898} ; [ DW_TAG_subprogram ]
!542 = metadata !{i32 786453, i32 0, metadata !"", i32 0, i32 0, i64 0, i64 0, i64 0, i32 0, null, metadata !543, i32 0, i32 0} ; [ DW_TAG_subroutine_type ]
!543 = metadata !{metadata !544, metadata !389, metadata !69, metadata !69}
!544 = metadata !{i32 786434, null, metadata !"ap_range_ref<2, false>", metadata !53, i32 878, i32 0, i32 0, i32 0, i32 4, null, null, i32 0} ; [ DW_TAG_class_type ]
!545 = metadata !{i32 786478, i32 0, metadata !373, metadata !"operator()", metadata !"operator()", metadata !"_ZN11ap_int_baseILi2ELb0ELb1EEclEii", metadata !53, i32 1904, metadata !542, i1 false, i1 false, i32 0, i32 0, null, i32 256, i1 false, null, null, i32 0, metadata !65, i32 1904} ; [ DW_TAG_subprogram ]
!546 = metadata !{i32 786478, i32 0, metadata !373, metadata !"range", metadata !"range", metadata !"_ZNK11ap_int_baseILi2ELb0ELb1EE5rangeEii", metadata !53, i32 1910, metadata !547, i1 false, i1 false, i32 0, i32 0, null, i32 256, i1 false, null, null, i32 0, metadata !65, i32 1910} ; [ DW_TAG_subprogram ]
!547 = metadata !{i32 786453, i32 0, metadata !"", i32 0, i32 0, i64 0, i64 0, i64 0, i32 0, null, metadata !548, i32 0, i32 0} ; [ DW_TAG_subroutine_type ]
!548 = metadata !{metadata !544, metadata !472, metadata !69, metadata !69}
!549 = metadata !{i32 786478, i32 0, metadata !373, metadata !"operator()", metadata !"operator()", metadata !"_ZNK11ap_int_baseILi2ELb0ELb1EEclEii", metadata !53, i32 1916, metadata !547, i1 false, i1 false, i32 0, i32 0, null, i32 256, i1 false, null, null, i32 0, metadata !65, i32 1916} ; [ DW_TAG_subprogram ]
!550 = metadata !{i32 786478, i32 0, metadata !373, metadata !"operator[]", metadata !"operator[]", metadata !"_ZN11ap_int_baseILi2ELb0ELb1EEixEi", metadata !53, i32 1935, metadata !551, i1 false, i1 false, i32 0, i32 0, null, i32 256, i1 false, null, null, i32 0, metadata !65, i32 1935} ; [ DW_TAG_subprogram ]
!551 = metadata !{i32 786453, i32 0, metadata !"", i32 0, i32 0, i64 0, i64 0, i64 0, i32 0, null, metadata !552, i32 0, i32 0} ; [ DW_TAG_subroutine_type ]
!552 = metadata !{metadata !553, metadata !389, metadata !69}
!553 = metadata !{i32 786434, null, metadata !"ap_bit_ref<2, false>", metadata !53, i32 1124, i64 128, i64 64, i32 0, i32 0, null, metadata !554, i32 0, null, metadata !586} ; [ DW_TAG_class_type ]
!554 = metadata !{metadata !555, metadata !556, metadata !557, metadata !562, metadata !566, metadata !571, metadata !572, metadata !575, metadata !578, metadata !579, metadata !582, metadata !583}
!555 = metadata !{i32 786445, metadata !553, metadata !"d_bv", metadata !53, i32 1125, i64 64, i64 64, i64 0, i32 0, metadata !393} ; [ DW_TAG_member ]
!556 = metadata !{i32 786445, metadata !553, metadata !"d_index", metadata !53, i32 1126, i64 32, i64 32, i64 64, i32 0, metadata !69} ; [ DW_TAG_member ]
!557 = metadata !{i32 786478, i32 0, metadata !553, metadata !"ap_bit_ref", metadata !"ap_bit_ref", metadata !"", metadata !53, i32 1129, metadata !558, i1 false, i1 false, i32 0, i32 0, null, i32 256, i1 false, null, null, i32 0, metadata !65, i32 1129} ; [ DW_TAG_subprogram ]
!558 = metadata !{i32 786453, i32 0, metadata !"", i32 0, i32 0, i64 0, i64 0, i64 0, i32 0, null, metadata !559, i32 0, i32 0} ; [ DW_TAG_subroutine_type ]
!559 = metadata !{null, metadata !560, metadata !561}
!560 = metadata !{i32 786447, i32 0, metadata !"", i32 0, i32 0, i64 64, i64 64, i64 0, i32 64, metadata !553} ; [ DW_TAG_pointer_type ]
!561 = metadata !{i32 786448, null, null, null, i32 0, i64 0, i64 0, i64 0, i32 0, metadata !553} ; [ DW_TAG_reference_type ]
!562 = metadata !{i32 786478, i32 0, metadata !553, metadata !"ap_bit_ref", metadata !"ap_bit_ref", metadata !"", metadata !53, i32 1132, metadata !563, i1 false, i1 false, i32 0, i32 0, null, i32 256, i1 false, null, null, i32 0, metadata !65, i32 1132} ; [ DW_TAG_subprogram ]
!563 = metadata !{i32 786453, i32 0, metadata !"", i32 0, i32 0, i64 0, i64 0, i64 0, i32 0, null, metadata !564, i32 0, i32 0} ; [ DW_TAG_subroutine_type ]
!564 = metadata !{null, metadata !560, metadata !565, metadata !69}
!565 = metadata !{i32 786447, null, metadata !"", null, i32 0, i64 64, i64 64, i64 0, i32 0, metadata !373} ; [ DW_TAG_pointer_type ]
!566 = metadata !{i32 786478, i32 0, metadata !553, metadata !"operator _Bool", metadata !"operator _Bool", metadata !"_ZNK10ap_bit_refILi2ELb0EEcvbEv", metadata !53, i32 1134, metadata !567, i1 false, i1 false, i32 0, i32 0, null, i32 256, i1 false, null, null, i32 0, metadata !65, i32 1134} ; [ DW_TAG_subprogram ]
!567 = metadata !{i32 786453, i32 0, metadata !"", i32 0, i32 0, i64 0, i64 0, i64 0, i32 0, null, metadata !568, i32 0, i32 0} ; [ DW_TAG_subroutine_type ]
!568 = metadata !{metadata !44, metadata !569}
!569 = metadata !{i32 786447, i32 0, metadata !"", i32 0, i32 0, i64 64, i64 64, i64 0, i32 64, metadata !570} ; [ DW_TAG_pointer_type ]
!570 = metadata !{i32 786470, null, metadata !"", null, i32 0, i64 0, i64 0, i64 0, i32 0, metadata !553} ; [ DW_TAG_const_type ]
!571 = metadata !{i32 786478, i32 0, metadata !553, metadata !"to_bool", metadata !"to_bool", metadata !"_ZNK10ap_bit_refILi2ELb0EE7to_boolEv", metadata !53, i32 1135, metadata !567, i1 false, i1 false, i32 0, i32 0, null, i32 256, i1 false, null, null, i32 0, metadata !65, i32 1135} ; [ DW_TAG_subprogram ]
!572 = metadata !{i32 786478, i32 0, metadata !553, metadata !"operator=", metadata !"operator=", metadata !"_ZN10ap_bit_refILi2ELb0EEaSEy", metadata !53, i32 1137, metadata !573, i1 false, i1 false, i32 0, i32 0, null, i32 256, i1 false, null, null, i32 0, metadata !65, i32 1137} ; [ DW_TAG_subprogram ]
!573 = metadata !{i32 786453, i32 0, metadata !"", i32 0, i32 0, i64 0, i64 0, i64 0, i32 0, null, metadata !574, i32 0, i32 0} ; [ DW_TAG_subroutine_type ]
!574 = metadata !{metadata !561, metadata !560, metadata !126}
!575 = metadata !{i32 786478, i32 0, metadata !553, metadata !"operator=", metadata !"operator=", metadata !"_ZN10ap_bit_refILi2ELb0EEaSERKS0_", metadata !53, i32 1157, metadata !576, i1 false, i1 false, i32 0, i32 0, null, i32 256, i1 false, null, null, i32 0, metadata !65, i32 1157} ; [ DW_TAG_subprogram ]
!576 = metadata !{i32 786453, i32 0, metadata !"", i32 0, i32 0, i64 0, i64 0, i64 0, i32 0, null, metadata !577, i32 0, i32 0} ; [ DW_TAG_subroutine_type ]
!577 = metadata !{metadata !561, metadata !560, metadata !561}
!578 = metadata !{i32 786478, i32 0, metadata !553, metadata !"get", metadata !"get", metadata !"_ZNK10ap_bit_refILi2ELb0EE3getEv", metadata !53, i32 1265, metadata !567, i1 false, i1 false, i32 0, i32 0, null, i32 256, i1 false, null, null, i32 0, metadata !65, i32 1265} ; [ DW_TAG_subprogram ]
!579 = metadata !{i32 786478, i32 0, metadata !553, metadata !"get", metadata !"get", metadata !"_ZN10ap_bit_refILi2ELb0EE3getEv", metadata !53, i32 1269, metadata !580, i1 false, i1 false, i32 0, i32 0, null, i32 256, i1 false, null, null, i32 0, metadata !65, i32 1269} ; [ DW_TAG_subprogram ]
!580 = metadata !{i32 786453, i32 0, metadata !"", i32 0, i32 0, i64 0, i64 0, i64 0, i32 0, null, metadata !581, i32 0, i32 0} ; [ DW_TAG_subroutine_type ]
!581 = metadata !{metadata !44, metadata !560}
!582 = metadata !{i32 786478, i32 0, metadata !553, metadata !"operator~", metadata !"operator~", metadata !"_ZNK10ap_bit_refILi2ELb0EEcoEv", metadata !53, i32 1278, metadata !567, i1 false, i1 false, i32 0, i32 0, null, i32 256, i1 false, null, null, i32 0, metadata !65, i32 1278} ; [ DW_TAG_subprogram ]
!583 = metadata !{i32 786478, i32 0, metadata !553, metadata !"length", metadata !"length", metadata !"_ZNK10ap_bit_refILi2ELb0EE6lengthEv", metadata !53, i32 1283, metadata !584, i1 false, i1 false, i32 0, i32 0, null, i32 256, i1 false, null, null, i32 0, metadata !65, i32 1283} ; [ DW_TAG_subprogram ]
!584 = metadata !{i32 786453, i32 0, metadata !"", i32 0, i32 0, i64 0, i64 0, i64 0, i32 0, null, metadata !585, i32 0, i32 0} ; [ DW_TAG_subroutine_type ]
!585 = metadata !{metadata !69, metadata !569}
!586 = metadata !{metadata !587, metadata !70}
!587 = metadata !{i32 786480, null, metadata !"_AP_W", metadata !69, i64 2, null, i32 0, i32 0} ; [ DW_TAG_template_value_parameter ]
!588 = metadata !{i32 786478, i32 0, metadata !373, metadata !"operator[]", metadata !"operator[]", metadata !"_ZNK11ap_int_baseILi2ELb0ELb1EEixEi", metadata !53, i32 1949, metadata !513, i1 false, i1 false, i32 0, i32 0, null, i32 256, i1 false, null, null, i32 0, metadata !65, i32 1949} ; [ DW_TAG_subprogram ]
!589 = metadata !{i32 786478, i32 0, metadata !373, metadata !"bit", metadata !"bit", metadata !"_ZN11ap_int_baseILi2ELb0ELb1EE3bitEi", metadata !53, i32 1963, metadata !551, i1 false, i1 false, i32 0, i32 0, null, i32 256, i1 false, null, null, i32 0, metadata !65, i32 1963} ; [ DW_TAG_subprogram ]
!590 = metadata !{i32 786478, i32 0, metadata !373, metadata !"bit", metadata !"bit", metadata !"_ZNK11ap_int_baseILi2ELb0ELb1EE3bitEi", metadata !53, i32 1977, metadata !513, i1 false, i1 false, i32 0, i32 0, null, i32 256, i1 false, null, null, i32 0, metadata !65, i32 1977} ; [ DW_TAG_subprogram ]
!591 = metadata !{i32 786478, i32 0, metadata !373, metadata !"and_reduce", metadata !"and_reduce", metadata !"_ZN11ap_int_baseILi2ELb0ELb1EE10and_reduceEv", metadata !53, i32 2157, metadata !592, i1 false, i1 false, i32 0, i32 0, null, i32 256, i1 false, null, null, i32 0, metadata !65, i32 2157} ; [ DW_TAG_subprogram ]
!592 = metadata !{i32 786453, i32 0, metadata !"", i32 0, i32 0, i64 0, i64 0, i64 0, i32 0, null, metadata !593, i32 0, i32 0} ; [ DW_TAG_subroutine_type ]
!593 = metadata !{metadata !44, metadata !389}
!594 = metadata !{i32 786478, i32 0, metadata !373, metadata !"nand_reduce", metadata !"nand_reduce", metadata !"_ZN11ap_int_baseILi2ELb0ELb1EE11nand_reduceEv", metadata !53, i32 2160, metadata !592, i1 false, i1 false, i32 0, i32 0, null, i32 256, i1 false, null, null, i32 0, metadata !65, i32 2160} ; [ DW_TAG_subprogram ]
!595 = metadata !{i32 786478, i32 0, metadata !373, metadata !"or_reduce", metadata !"or_reduce", metadata !"_ZN11ap_int_baseILi2ELb0ELb1EE9or_reduceEv", metadata !53, i32 2163, metadata !592, i1 false, i1 false, i32 0, i32 0, null, i32 256, i1 false, null, null, i32 0, metadata !65, i32 2163} ; [ DW_TAG_subprogram ]
!596 = metadata !{i32 786478, i32 0, metadata !373, metadata !"nor_reduce", metadata !"nor_reduce", metadata !"_ZN11ap_int_baseILi2ELb0ELb1EE10nor_reduceEv", metadata !53, i32 2166, metadata !592, i1 false, i1 false, i32 0, i32 0, null, i32 256, i1 false, null, null, i32 0, metadata !65, i32 2166} ; [ DW_TAG_subprogram ]
!597 = metadata !{i32 786478, i32 0, metadata !373, metadata !"xor_reduce", metadata !"xor_reduce", metadata !"_ZN11ap_int_baseILi2ELb0ELb1EE10xor_reduceEv", metadata !53, i32 2169, metadata !592, i1 false, i1 false, i32 0, i32 0, null, i32 256, i1 false, null, null, i32 0, metadata !65, i32 2169} ; [ DW_TAG_subprogram ]
!598 = metadata !{i32 786478, i32 0, metadata !373, metadata !"xnor_reduce", metadata !"xnor_reduce", metadata !"_ZN11ap_int_baseILi2ELb0ELb1EE11xnor_reduceEv", metadata !53, i32 2172, metadata !592, i1 false, i1 false, i32 0, i32 0, null, i32 256, i1 false, null, null, i32 0, metadata !65, i32 2172} ; [ DW_TAG_subprogram ]
!599 = metadata !{i32 786478, i32 0, metadata !373, metadata !"and_reduce", metadata !"and_reduce", metadata !"_ZNK11ap_int_baseILi2ELb0ELb1EE10and_reduceEv", metadata !53, i32 2176, metadata !475, i1 false, i1 false, i32 0, i32 0, null, i32 256, i1 false, null, null, i32 0, metadata !65, i32 2176} ; [ DW_TAG_subprogram ]
!600 = metadata !{i32 786478, i32 0, metadata !373, metadata !"nand_reduce", metadata !"nand_reduce", metadata !"_ZNK11ap_int_baseILi2ELb0ELb1EE11nand_reduceEv", metadata !53, i32 2179, metadata !475, i1 false, i1 false, i32 0, i32 0, null, i32 256, i1 false, null, null, i32 0, metadata !65, i32 2179} ; [ DW_TAG_subprogram ]
!601 = metadata !{i32 786478, i32 0, metadata !373, metadata !"or_reduce", metadata !"or_reduce", metadata !"_ZNK11ap_int_baseILi2ELb0ELb1EE9or_reduceEv", metadata !53, i32 2182, metadata !475, i1 false, i1 false, i32 0, i32 0, null, i32 256, i1 false, null, null, i32 0, metadata !65, i32 2182} ; [ DW_TAG_subprogram ]
!602 = metadata !{i32 786478, i32 0, metadata !373, metadata !"nor_reduce", metadata !"nor_reduce", metadata !"_ZNK11ap_int_baseILi2ELb0ELb1EE10nor_reduceEv", metadata !53, i32 2185, metadata !475, i1 false, i1 false, i32 0, i32 0, null, i32 256, i1 false, null, null, i32 0, metadata !65, i32 2185} ; [ DW_TAG_subprogram ]
!603 = metadata !{i32 786478, i32 0, metadata !373, metadata !"xor_reduce", metadata !"xor_reduce", metadata !"_ZNK11ap_int_baseILi2ELb0ELb1EE10xor_reduceEv", metadata !53, i32 2188, metadata !475, i1 false, i1 false, i32 0, i32 0, null, i32 256, i1 false, null, null, i32 0, metadata !65, i32 2188} ; [ DW_TAG_subprogram ]
!604 = metadata !{i32 786478, i32 0, metadata !373, metadata !"xnor_reduce", metadata !"xnor_reduce", metadata !"_ZNK11ap_int_baseILi2ELb0ELb1EE11xnor_reduceEv", metadata !53, i32 2191, metadata !475, i1 false, i1 false, i32 0, i32 0, null, i32 256, i1 false, null, null, i32 0, metadata !65, i32 2191} ; [ DW_TAG_subprogram ]
!605 = metadata !{i32 786478, i32 0, metadata !373, metadata !"to_string", metadata !"to_string", metadata !"_ZNK11ap_int_baseILi2ELb0ELb1EE9to_stringEPci8BaseModeb", metadata !53, i32 2198, metadata !606, i1 false, i1 false, i32 0, i32 0, null, i32 256, i1 false, null, null, i32 0, metadata !65, i32 2198} ; [ DW_TAG_subprogram ]
!606 = metadata !{i32 786453, i32 0, metadata !"", i32 0, i32 0, i64 0, i64 0, i64 0, i32 0, null, metadata !607, i32 0, i32 0} ; [ DW_TAG_subroutine_type ]
!607 = metadata !{null, metadata !472, metadata !280, metadata !69, metadata !281, metadata !44}
!608 = metadata !{i32 786478, i32 0, metadata !373, metadata !"to_string", metadata !"to_string", metadata !"_ZNK11ap_int_baseILi2ELb0ELb1EE9to_stringE8BaseModeb", metadata !53, i32 2225, metadata !609, i1 false, i1 false, i32 0, i32 0, null, i32 256, i1 false, null, null, i32 0, metadata !65, i32 2225} ; [ DW_TAG_subprogram ]
!609 = metadata !{i32 786453, i32 0, metadata !"", i32 0, i32 0, i64 0, i64 0, i64 0, i32 0, null, metadata !610, i32 0, i32 0} ; [ DW_TAG_subroutine_type ]
!610 = metadata !{metadata !280, metadata !472, metadata !281, metadata !44}
!611 = metadata !{i32 786478, i32 0, metadata !373, metadata !"to_string", metadata !"to_string", metadata !"_ZNK11ap_int_baseILi2ELb0ELb1EE9to_stringEab", metadata !53, i32 2229, metadata !612, i1 false, i1 false, i32 0, i32 0, null, i32 256, i1 false, null, null, i32 0, metadata !65, i32 2229} ; [ DW_TAG_subprogram ]
!612 = metadata !{i32 786453, i32 0, metadata !"", i32 0, i32 0, i64 0, i64 0, i64 0, i32 0, null, metadata !613, i32 0, i32 0} ; [ DW_TAG_subroutine_type ]
!613 = metadata !{metadata !280, metadata !472, metadata !89, metadata !44}
!614 = metadata !{i32 786478, i32 0, metadata !370, metadata !"ap_uint", metadata !"ap_uint", metadata !"", metadata !49, i32 137, metadata !615, i1 false, i1 false, i32 0, i32 0, null, i32 256, i1 false, null, null, i32 0, metadata !65, i32 137} ; [ DW_TAG_subprogram ]
!615 = metadata !{i32 786453, i32 0, metadata !"", i32 0, i32 0, i64 0, i64 0, i64 0, i32 0, null, metadata !616, i32 0, i32 0} ; [ DW_TAG_subroutine_type ]
!616 = metadata !{null, metadata !617}
!617 = metadata !{i32 786447, i32 0, metadata !"", i32 0, i32 0, i64 64, i64 64, i64 0, i32 64, metadata !370} ; [ DW_TAG_pointer_type ]
!618 = metadata !{i32 786478, i32 0, metadata !370, metadata !"ap_uint", metadata !"ap_uint", metadata !"", metadata !49, i32 199, metadata !619, i1 false, i1 false, i32 0, i32 0, null, i32 256, i1 false, null, null, i32 0, metadata !65, i32 199} ; [ DW_TAG_subprogram ]
!619 = metadata !{i32 786453, i32 0, metadata !"", i32 0, i32 0, i64 0, i64 0, i64 0, i32 0, null, metadata !620, i32 0, i32 0} ; [ DW_TAG_subroutine_type ]
!620 = metadata !{null, metadata !617, metadata !44}
!621 = metadata !{i32 786478, i32 0, metadata !370, metadata !"ap_uint", metadata !"ap_uint", metadata !"", metadata !49, i32 200, metadata !622, i1 false, i1 false, i32 0, i32 0, null, i32 256, i1 false, null, null, i32 0, metadata !65, i32 200} ; [ DW_TAG_subprogram ]
!622 = metadata !{i32 786453, i32 0, metadata !"", i32 0, i32 0, i64 0, i64 0, i64 0, i32 0, null, metadata !623, i32 0, i32 0} ; [ DW_TAG_subroutine_type ]
!623 = metadata !{null, metadata !617, metadata !89}
!624 = metadata !{i32 786478, i32 0, metadata !370, metadata !"ap_uint", metadata !"ap_uint", metadata !"", metadata !49, i32 201, metadata !625, i1 false, i1 false, i32 0, i32 0, null, i32 256, i1 false, null, null, i32 0, metadata !65, i32 201} ; [ DW_TAG_subprogram ]
!625 = metadata !{i32 786453, i32 0, metadata !"", i32 0, i32 0, i64 0, i64 0, i64 0, i32 0, null, metadata !626, i32 0, i32 0} ; [ DW_TAG_subroutine_type ]
!626 = metadata !{null, metadata !617, metadata !93}
!627 = metadata !{i32 786478, i32 0, metadata !370, metadata !"ap_uint", metadata !"ap_uint", metadata !"", metadata !49, i32 202, metadata !628, i1 false, i1 false, i32 0, i32 0, null, i32 256, i1 false, null, null, i32 0, metadata !65, i32 202} ; [ DW_TAG_subprogram ]
!628 = metadata !{i32 786453, i32 0, metadata !"", i32 0, i32 0, i64 0, i64 0, i64 0, i32 0, null, metadata !629, i32 0, i32 0} ; [ DW_TAG_subroutine_type ]
!629 = metadata !{null, metadata !617, metadata !97}
!630 = metadata !{i32 786478, i32 0, metadata !370, metadata !"ap_uint", metadata !"ap_uint", metadata !"", metadata !49, i32 203, metadata !631, i1 false, i1 false, i32 0, i32 0, null, i32 256, i1 false, null, null, i32 0, metadata !65, i32 203} ; [ DW_TAG_subprogram ]
!631 = metadata !{i32 786453, i32 0, metadata !"", i32 0, i32 0, i64 0, i64 0, i64 0, i32 0, null, metadata !632, i32 0, i32 0} ; [ DW_TAG_subroutine_type ]
!632 = metadata !{null, metadata !617, metadata !101}
!633 = metadata !{i32 786478, i32 0, metadata !370, metadata !"ap_uint", metadata !"ap_uint", metadata !"", metadata !49, i32 204, metadata !634, i1 false, i1 false, i32 0, i32 0, null, i32 256, i1 false, null, null, i32 0, metadata !65, i32 204} ; [ DW_TAG_subprogram ]
!634 = metadata !{i32 786453, i32 0, metadata !"", i32 0, i32 0, i64 0, i64 0, i64 0, i32 0, null, metadata !635, i32 0, i32 0} ; [ DW_TAG_subroutine_type ]
!635 = metadata !{null, metadata !617, metadata !69}
!636 = metadata !{i32 786478, i32 0, metadata !370, metadata !"ap_uint", metadata !"ap_uint", metadata !"", metadata !49, i32 205, metadata !637, i1 false, i1 false, i32 0, i32 0, null, i32 256, i1 false, null, null, i32 0, metadata !65, i32 205} ; [ DW_TAG_subprogram ]
!637 = metadata !{i32 786453, i32 0, metadata !"", i32 0, i32 0, i64 0, i64 0, i64 0, i32 0, null, metadata !638, i32 0, i32 0} ; [ DW_TAG_subroutine_type ]
!638 = metadata !{null, metadata !617, metadata !108}
!639 = metadata !{i32 786478, i32 0, metadata !370, metadata !"ap_uint", metadata !"ap_uint", metadata !"", metadata !49, i32 206, metadata !640, i1 false, i1 false, i32 0, i32 0, null, i32 256, i1 false, null, null, i32 0, metadata !65, i32 206} ; [ DW_TAG_subprogram ]
!640 = metadata !{i32 786453, i32 0, metadata !"", i32 0, i32 0, i64 0, i64 0, i64 0, i32 0, null, metadata !641, i32 0, i32 0} ; [ DW_TAG_subroutine_type ]
!641 = metadata !{null, metadata !617, metadata !112}
!642 = metadata !{i32 786478, i32 0, metadata !370, metadata !"ap_uint", metadata !"ap_uint", metadata !"", metadata !49, i32 207, metadata !643, i1 false, i1 false, i32 0, i32 0, null, i32 256, i1 false, null, null, i32 0, metadata !65, i32 207} ; [ DW_TAG_subprogram ]
!643 = metadata !{i32 786453, i32 0, metadata !"", i32 0, i32 0, i64 0, i64 0, i64 0, i32 0, null, metadata !644, i32 0, i32 0} ; [ DW_TAG_subroutine_type ]
!644 = metadata !{null, metadata !617, metadata !116}
!645 = metadata !{i32 786478, i32 0, metadata !370, metadata !"ap_uint", metadata !"ap_uint", metadata !"", metadata !49, i32 208, metadata !646, i1 false, i1 false, i32 0, i32 0, null, i32 256, i1 false, null, null, i32 0, metadata !65, i32 208} ; [ DW_TAG_subprogram ]
!646 = metadata !{i32 786453, i32 0, metadata !"", i32 0, i32 0, i64 0, i64 0, i64 0, i32 0, null, metadata !647, i32 0, i32 0} ; [ DW_TAG_subroutine_type ]
!647 = metadata !{null, metadata !617, metadata !126}
!648 = metadata !{i32 786478, i32 0, metadata !370, metadata !"ap_uint", metadata !"ap_uint", metadata !"", metadata !49, i32 209, metadata !649, i1 false, i1 false, i32 0, i32 0, null, i32 256, i1 false, null, null, i32 0, metadata !65, i32 209} ; [ DW_TAG_subprogram ]
!649 = metadata !{i32 786453, i32 0, metadata !"", i32 0, i32 0, i64 0, i64 0, i64 0, i32 0, null, metadata !650, i32 0, i32 0} ; [ DW_TAG_subroutine_type ]
!650 = metadata !{null, metadata !617, metadata !121}
!651 = metadata !{i32 786478, i32 0, metadata !370, metadata !"ap_uint", metadata !"ap_uint", metadata !"", metadata !49, i32 210, metadata !652, i1 false, i1 false, i32 0, i32 0, null, i32 256, i1 false, null, null, i32 0, metadata !65, i32 210} ; [ DW_TAG_subprogram ]
!652 = metadata !{i32 786453, i32 0, metadata !"", i32 0, i32 0, i64 0, i64 0, i64 0, i32 0, null, metadata !653, i32 0, i32 0} ; [ DW_TAG_subroutine_type ]
!653 = metadata !{null, metadata !617, metadata !130}
!654 = metadata !{i32 786478, i32 0, metadata !370, metadata !"ap_uint", metadata !"ap_uint", metadata !"", metadata !49, i32 211, metadata !655, i1 false, i1 false, i32 0, i32 0, null, i32 256, i1 false, null, null, i32 0, metadata !65, i32 211} ; [ DW_TAG_subprogram ]
!655 = metadata !{i32 786453, i32 0, metadata !"", i32 0, i32 0, i64 0, i64 0, i64 0, i32 0, null, metadata !656, i32 0, i32 0} ; [ DW_TAG_subroutine_type ]
!656 = metadata !{null, metadata !617, metadata !134}
!657 = metadata !{i32 786478, i32 0, metadata !370, metadata !"ap_uint", metadata !"ap_uint", metadata !"", metadata !49, i32 213, metadata !658, i1 false, i1 false, i32 0, i32 0, null, i32 256, i1 false, null, null, i32 0, metadata !65, i32 213} ; [ DW_TAG_subprogram ]
!658 = metadata !{i32 786453, i32 0, metadata !"", i32 0, i32 0, i64 0, i64 0, i64 0, i32 0, null, metadata !659, i32 0, i32 0} ; [ DW_TAG_subroutine_type ]
!659 = metadata !{null, metadata !617, metadata !138}
!660 = metadata !{i32 786478, i32 0, metadata !370, metadata !"ap_uint", metadata !"ap_uint", metadata !"", metadata !49, i32 214, metadata !661, i1 false, i1 false, i32 0, i32 0, null, i32 256, i1 false, null, null, i32 0, metadata !65, i32 214} ; [ DW_TAG_subprogram ]
!661 = metadata !{i32 786453, i32 0, metadata !"", i32 0, i32 0, i64 0, i64 0, i64 0, i32 0, null, metadata !662, i32 0, i32 0} ; [ DW_TAG_subroutine_type ]
!662 = metadata !{null, metadata !617, metadata !138, metadata !89}
!663 = metadata !{i32 786478, i32 0, metadata !370, metadata !"operator=", metadata !"operator=", metadata !"_ZNV7ap_uintILi2EEaSERKS0_", metadata !49, i32 217, metadata !664, i1 false, i1 false, i32 0, i32 0, null, i32 256, i1 false, null, null, i32 0, metadata !65, i32 217} ; [ DW_TAG_subprogram ]
!664 = metadata !{i32 786453, i32 0, metadata !"", i32 0, i32 0, i64 0, i64 0, i64 0, i32 0, null, metadata !665, i32 0, i32 0} ; [ DW_TAG_subroutine_type ]
!665 = metadata !{null, metadata !666, metadata !668}
!666 = metadata !{i32 786447, i32 0, metadata !"", i32 0, i32 0, i64 64, i64 64, i64 0, i32 64, metadata !667} ; [ DW_TAG_pointer_type ]
!667 = metadata !{i32 786485, null, metadata !"", null, i32 0, i64 0, i64 0, i64 0, i32 0, metadata !370} ; [ DW_TAG_volatile_type ]
!668 = metadata !{i32 786448, null, null, null, i32 0, i64 0, i64 0, i64 0, i32 0, metadata !370} ; [ DW_TAG_reference_type ]
!669 = metadata !{i32 786478, i32 0, metadata !370, metadata !"operator=", metadata !"operator=", metadata !"_ZNV7ap_uintILi2EEaSERVKS0_", metadata !49, i32 221, metadata !664, i1 false, i1 false, i32 0, i32 0, null, i32 256, i1 false, null, null, i32 0, metadata !65, i32 221} ; [ DW_TAG_subprogram ]
!670 = metadata !{i32 786478, i32 0, metadata !370, metadata !"operator=", metadata !"operator=", metadata !"_ZN7ap_uintILi2EEaSERVKS0_", metadata !49, i32 225, metadata !671, i1 false, i1 false, i32 0, i32 0, null, i32 256, i1 false, null, null, i32 0, metadata !65, i32 225} ; [ DW_TAG_subprogram ]
!671 = metadata !{i32 786453, i32 0, metadata !"", i32 0, i32 0, i64 0, i64 0, i64 0, i32 0, null, metadata !672, i32 0, i32 0} ; [ DW_TAG_subroutine_type ]
!672 = metadata !{metadata !668, metadata !617, metadata !668}
!673 = metadata !{i32 786478, i32 0, metadata !370, metadata !"operator=", metadata !"operator=", metadata !"_ZN7ap_uintILi2EEaSERKS0_", metadata !49, i32 230, metadata !671, i1 false, i1 false, i32 0, i32 0, null, i32 256, i1 false, null, null, i32 0, metadata !65, i32 230} ; [ DW_TAG_subprogram ]
!674 = metadata !{i32 786478, i32 0, metadata !370, metadata !"~ap_uint", metadata !"~ap_uint", metadata !"", metadata !49, i32 134, metadata !615, i1 false, i1 false, i32 0, i32 0, null, i32 320, i1 false, null, null, i32 0, metadata !65, i32 134} ; [ DW_TAG_subprogram ]
!675 = metadata !{i32 786474, metadata !370, null, metadata !49, i32 0, i64 0, i64 0, i64 0, i32 0, metadata !365} ; [ DW_TAG_friend ]
!676 = metadata !{metadata !587}
!677 = metadata !{i32 786485, null, metadata !"", null, i32 0, i64 0, i64 0, i64 0, i32 0, metadata !44} ; [ DW_TAG_volatile_type ]
!678 = metadata !{i32 36, i32 38, metadata !40, null}
!679 = metadata !{i32 786689, metadata !40, metadata !"empty", metadata !41, i32 67108900, metadata !677, i32 0, i32 0} ; [ DW_TAG_arg_variable ]
!680 = metadata !{i32 36, i32 17, metadata !40, null}
!681 = metadata !{i32 790533, metadata !682, metadata !"priorityIn.V", null, i32 59, metadata !690, i32 0, i32 0} ; [ DW_TAG_arg_variable_field_ro ]
!682 = metadata !{i32 786689, metadata !683, metadata !"priorityIn", metadata !41, i32 16777275, metadata !686, i32 0, i32 0} ; [ DW_TAG_arg_variable ]
!683 = metadata !{i32 786478, i32 0, metadata !365, metadata !"aesl_keep_name_ap_uint_priorityIn", metadata !"aesl_keep_name_ap_uint_priorityIn", metadata !"_ZN20aesl_keep_name_class39aesl_keep_name_class_ap_uint_priorityInILi4EE33aesl_keep_name_ap_uint_priorityInEPV7ap_uintILi4EE", metadata !41, i32 59, metadata !684, i1 false, i1 true, i32 0, i32 0, null, i32 256, i1 false, null, null, metadata !687, metadata !65, i32 59} ; [ DW_TAG_subprogram ]
!684 = metadata !{i32 786453, i32 0, metadata !"", i32 0, i32 0, i64 0, i64 0, i64 0, i32 0, null, metadata !685, i32 0, i32 0} ; [ DW_TAG_subroutine_type ]
!685 = metadata !{null, metadata !686}
!686 = metadata !{i32 786447, null, metadata !"", null, i32 0, i64 64, i64 64, i64 0, i32 0, metadata !48} ; [ DW_TAG_pointer_type ]
!687 = metadata !{i32 786478, i32 0, metadata !688, metadata !"aesl_keep_name_ap_uint_priorityIn", metadata !"aesl_keep_name_ap_uint_priorityIn", metadata !"_ZN20aesl_keep_name_class39aesl_keep_name_class_ap_uint_priorityInILi4EE33aesl_keep_name_ap_uint_priorityInEPV7ap_uintILi4EE", metadata !41, i32 59, metadata !684, i1 false, i1 false, i32 0, i32 0, null, i32 256, i1 false, null, null, i32 0, metadata !65, i32 59} ; [ DW_TAG_subprogram ]
!688 = metadata !{i32 786434, metadata !365, metadata !"aesl_keep_name_class_ap_uint_priorityIn<4>", metadata !41, i32 57, i64 8, i64 8, i32 0, i32 0, null, metadata !689, i32 0, null, metadata !366} ; [ DW_TAG_class_type ]
!689 = metadata !{metadata !687}
!690 = metadata !{i32 786447, null, metadata !"", null, i32 0, i64 64, i64 64, i64 0, i32 0, metadata !691} ; [ DW_TAG_pointer_type ]
!691 = metadata !{i32 786438, null, metadata !"ap_uint<4>", metadata !49, i32 134, i64 4, i64 8, i32 0, i32 0, null, metadata !692, i32 0, null, metadata !366} ; [ DW_TAG_class_field_type ]
!692 = metadata !{metadata !693}
!693 = metadata !{i32 786438, null, metadata !"ap_int_base<4, false, true>", metadata !53, i32 1302, i64 4, i64 8, i32 0, i32 0, null, metadata !694, i32 0, null, metadata !293} ; [ DW_TAG_class_field_type ]
!694 = metadata !{metadata !695}
!695 = metadata !{i32 786438, null, metadata !"ssdm_int<4 + 1024 * 0, false>", metadata !57, i32 6, i64 4, i64 8, i32 0, i32 0, null, metadata !696, i32 0, null, metadata !67} ; [ DW_TAG_class_field_type ]
!696 = metadata !{metadata !59}
!697 = metadata !{i32 59, i32 108, metadata !683, metadata !698}
!698 = metadata !{i32 36, i32 0, metadata !699, null}
!699 = metadata !{i32 786443, metadata !40, i32 36, i32 77, metadata !41, i32 0} ; [ DW_TAG_lexical_block ]
!700 = metadata !{i32 790533, metadata !701, metadata !"op.V", null, i32 145, metadata !703, i32 0, i32 0} ; [ DW_TAG_arg_variable_field_ro ]
!701 = metadata !{i32 786689, metadata !702, metadata !"op", metadata !49, i32 33554577, metadata !302, i32 0, i32 0} ; [ DW_TAG_arg_variable ]
!702 = metadata !{i32 786478, i32 0, null, metadata !"ap_uint<4>", metadata !"ap_uint<4>", metadata !"_ZN7ap_uintILi4EEC1ILi4EEERVKS_IXT_EE", metadata !49, i32 145, metadata !300, i1 false, i1 true, i32 0, i32 0, null, i32 256, i1 false, null, metadata !303, metadata !304, metadata !65, i32 145} ; [ DW_TAG_subprogram ]
!703 = metadata !{i32 786447, null, metadata !"", null, i32 0, i64 0, i64 0, i64 0, i32 0, metadata !691} ; [ DW_TAG_pointer_type ]
!704 = metadata !{i32 145, i32 83, metadata !702, metadata !705}
!705 = metadata !{i32 76, i32 7, metadata !706, null}
!706 = metadata !{i32 786443, metadata !707, i32 73, i32 20, metadata !41, i32 4} ; [ DW_TAG_lexical_block ]
!707 = metadata !{i32 786443, metadata !708, i32 58, i32 24, metadata !41, i32 2} ; [ DW_TAG_lexical_block ]
!708 = metadata !{i32 786443, metadata !699, i32 58, i32 6, metadata !41, i32 1} ; [ DW_TAG_lexical_block ]
!709 = metadata !{i32 790533, metadata !710, metadata !"op.V", null, i32 145, metadata !703, i32 0, i32 0} ; [ DW_TAG_arg_variable_field_ro ]
!710 = metadata !{i32 786689, metadata !711, metadata !"op", metadata !49, i32 33554577, metadata !302, i32 0, i32 0} ; [ DW_TAG_arg_variable ]
!711 = metadata !{i32 786478, i32 0, null, metadata !"ap_uint<4>", metadata !"ap_uint<4>", metadata !"_ZN7ap_uintILi4EEC2ILi4EEERVKS_IXT_EE", metadata !49, i32 145, metadata !300, i1 false, i1 true, i32 0, i32 0, null, i32 256, i1 false, null, metadata !303, metadata !304, metadata !65, i32 145} ; [ DW_TAG_subprogram ]
!712 = metadata !{i32 145, i32 83, metadata !711, metadata !713}
!713 = metadata !{i32 145, i32 105, metadata !702, metadata !705}
!714 = metadata !{i32 790533, metadata !715, metadata !"op2.V", null, i32 221, metadata !703, i32 0, i32 0} ; [ DW_TAG_arg_variable_field_ro ]
!715 = metadata !{i32 786689, metadata !716, metadata !"op2", metadata !49, i32 33554653, metadata !302, i32 0, i32 0} ; [ DW_TAG_arg_variable ]
!716 = metadata !{i32 786478, i32 0, null, metadata !"operator=", metadata !"operator=", metadata !"_ZNV7ap_uintILi4EEaSERVKS0_", metadata !49, i32 221, metadata !354, i1 false, i1 true, i32 0, i32 0, null, i32 256, i1 false, null, null, metadata !358, metadata !65, i32 221} ; [ DW_TAG_subprogram ]
!717 = metadata !{i32 221, i32 92, metadata !716, metadata !718}
!718 = metadata !{i32 79, i32 4, metadata !706, null}
!719 = metadata !{i32 145, i32 83, metadata !702, metadata !720}
!720 = metadata !{i32 96, i32 14, metadata !721, null}
!721 = metadata !{i32 786443, metadata !707, i32 94, i32 20, metadata !41, i32 7} ; [ DW_TAG_lexical_block ]
!722 = metadata !{i32 145, i32 83, metadata !711, metadata !723}
!723 = metadata !{i32 145, i32 105, metadata !702, metadata !720}
!724 = metadata !{i32 221, i32 92, metadata !716, metadata !725}
!725 = metadata !{i32 100, i32 4, metadata !721, null}
!726 = metadata !{i32 145, i32 83, metadata !702, metadata !727}
!727 = metadata !{i32 102, i32 11, metadata !721, null}
!728 = metadata !{i32 145, i32 83, metadata !711, metadata !729}
!729 = metadata !{i32 145, i32 105, metadata !702, metadata !727}
!730 = metadata !{i32 790531, metadata !731, metadata !"priorityOut.V", null, i32 35, metadata !690, i32 0, i32 0} ; [ DW_TAG_arg_variable_field ]
!731 = metadata !{i32 786689, metadata !40, metadata !"priorityOut", metadata !41, i32 16777251, metadata !45, i32 0, i32 0} ; [ DW_TAG_arg_variable ]
!732 = metadata !{i32 35, i32 32, metadata !40, null}
!733 = metadata !{i32 790531, metadata !734, metadata !"cmdOut.V", null, i32 35, metadata !735, i32 0, i32 0} ; [ DW_TAG_arg_variable_field ]
!734 = metadata !{i32 786689, metadata !40, metadata !"cmdOut", metadata !41, i32 50331683, metadata !367, i32 0, i32 0} ; [ DW_TAG_arg_variable ]
!735 = metadata !{i32 786447, null, metadata !"", null, i32 0, i64 64, i64 64, i64 0, i32 0, metadata !736} ; [ DW_TAG_pointer_type ]
!736 = metadata !{i32 786438, null, metadata !"ap_uint<2>", metadata !49, i32 134, i64 2, i64 8, i32 0, i32 0, null, metadata !737, i32 0, null, metadata !676} ; [ DW_TAG_class_field_type ]
!737 = metadata !{metadata !738}
!738 = metadata !{i32 786438, null, metadata !"ap_int_base<2, false, true>", metadata !53, i32 1302, i64 2, i64 8, i32 0, i32 0, null, metadata !739, i32 0, null, metadata !586} ; [ DW_TAG_class_field_type ]
!739 = metadata !{metadata !740}
!740 = metadata !{i32 786438, null, metadata !"ssdm_int<2 + 1024 * 0, false>", metadata !57, i32 4, i64 2, i64 8, i32 0, i32 0, null, metadata !741, i32 0, null, metadata !384} ; [ DW_TAG_class_field_type ]
!741 = metadata !{metadata !378}
!742 = metadata !{i32 35, i32 87, metadata !40, null}
!743 = metadata !{i32 790531, metadata !744, metadata !"currentPriority.V", null, i32 36, metadata !690, i32 0, i32 0} ; [ DW_TAG_arg_variable_field ]
!744 = metadata !{i32 786689, metadata !40, metadata !"currentPriority", metadata !41, i32 100663332, metadata !45, i32 0, i32 0} ; [ DW_TAG_arg_variable ]
!745 = metadata !{i32 36, i32 61, metadata !40, null}
!746 = metadata !{i32 790531, metadata !747, metadata !"cmdOut.V", null, i32 95, metadata !735, i32 0, i32 0} ; [ DW_TAG_arg_variable_field ]
!747 = metadata !{i32 786689, metadata !748, metadata !"cmdOut", metadata !41, i32 16777311, metadata !751, i32 0, i32 0} ; [ DW_TAG_arg_variable ]
!748 = metadata !{i32 786478, i32 0, metadata !365, metadata !"aesl_keep_name_ap_uint_cmdOut", metadata !"aesl_keep_name_ap_uint_cmdOut", metadata !"_ZN20aesl_keep_name_class35aesl_keep_name_class_ap_uint_cmdOutILi2EE29aesl_keep_name_ap_uint_cmdOutEPV7ap_uintILi2EE", metadata !41, i32 95, metadata !749, i1 false, i1 true, i32 0, i32 0, null, i32 256, i1 false, null, null, metadata !752, metadata !65, i32 95} ; [ DW_TAG_subprogram ]
!749 = metadata !{i32 786453, i32 0, metadata !"", i32 0, i32 0, i64 0, i64 0, i64 0, i32 0, null, metadata !750, i32 0, i32 0} ; [ DW_TAG_subroutine_type ]
!750 = metadata !{null, metadata !751}
!751 = metadata !{i32 786447, null, metadata !"", null, i32 0, i64 64, i64 64, i64 0, i32 0, metadata !370} ; [ DW_TAG_pointer_type ]
!752 = metadata !{i32 786478, i32 0, metadata !753, metadata !"aesl_keep_name_ap_uint_cmdOut", metadata !"aesl_keep_name_ap_uint_cmdOut", metadata !"_ZN20aesl_keep_name_class35aesl_keep_name_class_ap_uint_cmdOutILi2EE29aesl_keep_name_ap_uint_cmdOutEPV7ap_uintILi2EE", metadata !41, i32 95, metadata !749, i1 false, i1 false, i32 0, i32 0, null, i32 256, i1 false, null, null, i32 0, metadata !65, i32 95} ; [ DW_TAG_subprogram ]
!753 = metadata !{i32 786434, metadata !365, metadata !"aesl_keep_name_class_ap_uint_cmdOut<2>", metadata !41, i32 93, i64 8, i64 8, i32 0, i32 0, null, metadata !754, i32 0, null, metadata !676} ; [ DW_TAG_class_type ]
!754 = metadata !{metadata !752}
!755 = metadata !{i32 95, i32 104, metadata !748, metadata !756}
!756 = metadata !{i32 36, i32 78, metadata !699, null}
!757 = metadata !{i32 790531, metadata !758, metadata !"currentPriority.V", null, i32 77, metadata !690, i32 0, i32 0} ; [ DW_TAG_arg_variable_field ]
!758 = metadata !{i32 786689, metadata !759, metadata !"currentPriority", metadata !41, i32 16777293, metadata !686, i32 0, i32 0} ; [ DW_TAG_arg_variable ]
!759 = metadata !{i32 786478, i32 0, metadata !365, metadata !"aesl_keep_name_ap_uint_currentPriority", metadata !"aesl_keep_name_ap_uint_currentPriority", metadata !"_ZN20aesl_keep_name_class44aesl_keep_name_class_ap_uint_currentPriorityILi4EE38aesl_keep_name_ap_uint_currentPriorityEPV7ap_uintILi4EE", metadata !41, i32 77, metadata !684, i1 false, i1 true, i32 0, i32 0, null, i32 256, i1 false, null, null, metadata !760, metadata !65, i32 77} ; [ DW_TAG_subprogram ]
!760 = metadata !{i32 786478, i32 0, metadata !761, metadata !"aesl_keep_name_ap_uint_currentPriority", metadata !"aesl_keep_name_ap_uint_currentPriority", metadata !"_ZN20aesl_keep_name_class44aesl_keep_name_class_ap_uint_currentPriorityILi4EE38aesl_keep_name_ap_uint_currentPriorityEPV7ap_uintILi4EE", metadata !41, i32 77, metadata !684, i1 false, i1 false, i32 0, i32 0, null, i32 256, i1 false, null, null, i32 0, metadata !65, i32 77} ; [ DW_TAG_subprogram ]
!761 = metadata !{i32 786434, metadata !365, metadata !"aesl_keep_name_class_ap_uint_currentPriority<4>", metadata !41, i32 75, i64 8, i64 8, i32 0, i32 0, null, metadata !762, i32 0, null, metadata !366} ; [ DW_TAG_class_type ]
!762 = metadata !{metadata !760}
!763 = metadata !{i32 77, i32 113, metadata !759, metadata !764}
!764 = metadata !{i32 36, i32 182, metadata !699, null}
!765 = metadata !{i32 790531, metadata !766, metadata !"priorityOut.V", null, i32 41, metadata !690, i32 0, i32 0} ; [ DW_TAG_arg_variable_field ]
!766 = metadata !{i32 786689, metadata !767, metadata !"priorityOut", metadata !41, i32 16777257, metadata !686, i32 0, i32 0} ; [ DW_TAG_arg_variable ]
!767 = metadata !{i32 786478, i32 0, metadata !365, metadata !"aesl_keep_name_ap_uint_priorityOut", metadata !"aesl_keep_name_ap_uint_priorityOut", metadata !"_ZN20aesl_keep_name_class40aesl_keep_name_class_ap_uint_priorityOutILi4EE34aesl_keep_name_ap_uint_priorityOutEPV7ap_uintILi4EE", metadata !41, i32 41, metadata !684, i1 false, i1 true, i32 0, i32 0, null, i32 256, i1 false, null, null, metadata !768, metadata !65, i32 41} ; [ DW_TAG_subprogram ]
!768 = metadata !{i32 786478, i32 0, metadata !769, metadata !"aesl_keep_name_ap_uint_priorityOut", metadata !"aesl_keep_name_ap_uint_priorityOut", metadata !"_ZN20aesl_keep_name_class40aesl_keep_name_class_ap_uint_priorityOutILi4EE34aesl_keep_name_ap_uint_priorityOutEPV7ap_uintILi4EE", metadata !41, i32 41, metadata !684, i1 false, i1 false, i32 0, i32 0, null, i32 256, i1 false, null, null, i32 0, metadata !65, i32 41} ; [ DW_TAG_subprogram ]
!769 = metadata !{i32 786434, metadata !365, metadata !"aesl_keep_name_class_ap_uint_priorityOut<4>", metadata !41, i32 39, i64 8, i64 8, i32 0, i32 0, null, metadata !770, i32 0, null, metadata !366} ; [ DW_TAG_class_type ]
!770 = metadata !{metadata !768}
!771 = metadata !{i32 41, i32 109, metadata !767, metadata !698}
!772 = metadata !{i32 39, i32 1, metadata !699, null}
!773 = metadata !{i32 41, i32 1, metadata !699, null}
!774 = metadata !{i32 43, i32 1, metadata !699, null}
!775 = metadata !{i32 45, i32 1, metadata !699, null}
!776 = metadata !{i32 47, i32 1, metadata !699, null}
!777 = metadata !{i32 49, i32 1, metadata !699, null}
!778 = metadata !{i32 51, i32 1, metadata !699, null}
!779 = metadata !{i32 53, i32 1, metadata !699, null}
!780 = metadata !{i32 1874, i32 9, metadata !781, metadata !1234}
!781 = metadata !{i32 786443, metadata !782, i32 1873, i32 107, metadata !53, i32 15} ; [ DW_TAG_lexical_block ]
!782 = metadata !{i32 786478, i32 0, null, metadata !"operator!=<32, true>", metadata !"operator!=<32, true>", metadata !"_ZNK11ap_int_baseILi4ELb0ELb1EEneILi32ELb1EEEbRKS_IXT_EXT0_EXleT_Li64EEE", metadata !53, i32 1873, metadata !783, i1 false, i1 true, i32 0, i32 0, null, i32 256, i1 false, null, metadata !807, null, metadata !65, i32 1873} ; [ DW_TAG_subprogram ]
!783 = metadata !{i32 786453, i32 0, metadata !"", i32 0, i32 0, i64 0, i64 0, i64 0, i32 0, null, metadata !784, i32 0, i32 0} ; [ DW_TAG_subroutine_type ]
!784 = metadata !{metadata !44, metadata !178, metadata !785}
!785 = metadata !{i32 786448, null, null, null, i32 0, i64 0, i64 0, i64 0, i32 0, metadata !786} ; [ DW_TAG_reference_type ]
!786 = metadata !{i32 786434, null, metadata !"ap_int_base<32, true, true>", metadata !53, i32 1302, i64 32, i64 32, i32 0, i32 0, null, metadata !787, i32 0, null, metadata !1232} ; [ DW_TAG_class_type ]
!787 = metadata !{metadata !788, metadata !800, metadata !804, metadata !810, metadata !811, metadata !814, metadata !817, metadata !820, metadata !823, metadata !826, metadata !829, metadata !832, metadata !835, metadata !838, metadata !841, metadata !844, metadata !847, metadata !850, metadata !853, metadata !856, metadata !861, metadata !864, metadata !865, metadata !866, metadata !869, metadata !870, metadata !873, metadata !876, metadata !879, metadata !882, metadata !891, metadata !894, metadata !897, metadata !900, metadata !903, metadata !906, metadata !909, metadata !912, metadata !915, metadata !916, metadata !921, metadata !924, metadata !925, metadata !926, metadata !927, metadata !928, metadata !929, metadata !932, metadata !933, metadata !936, metadata !937, metadata !938, metadata !939, metadata !940, metadata !941, metadata !944, metadata !945, metadata !946, metadata !949, metadata !950, metadata !953, metadata !954, metadata !1192, metadata !1196, metadata !1197, metadata !1200, metadata !1201, metadata !1205, metadata !1206, metadata !1207, metadata !1208, metadata !1211, metadata !1212, metadata !1213, metadata !1214, metadata !1215, metadata !1216, metadata !1217, metadata !1218, metadata !1219, metadata !1220, metadata !1221, metadata !1222, metadata !1225, metadata !1228, metadata !1231}
!788 = metadata !{i32 786460, metadata !786, null, metadata !53, i32 0, i64 0, i64 0, i64 0, i32 0, metadata !789} ; [ DW_TAG_inheritance ]
!789 = metadata !{i32 786434, null, metadata !"ssdm_int<32 + 1024 * 0, true>", metadata !57, i32 34, i64 32, i64 32, i32 0, i32 0, null, metadata !790, i32 0, null, metadata !797} ; [ DW_TAG_class_type ]
!790 = metadata !{metadata !791, metadata !793}
!791 = metadata !{i32 786445, metadata !789, metadata !"V", metadata !57, i32 34, i64 32, i64 32, i64 0, i32 0, metadata !792} ; [ DW_TAG_member ]
!792 = metadata !{i32 786468, null, metadata !"int32", null, i32 0, i64 32, i64 32, i64 0, i32 0, i32 5} ; [ DW_TAG_base_type ]
!793 = metadata !{i32 786478, i32 0, metadata !789, metadata !"ssdm_int", metadata !"ssdm_int", metadata !"", metadata !57, i32 34, metadata !794, i1 false, i1 false, i32 0, i32 0, null, i32 256, i1 false, null, null, i32 0, metadata !65, i32 34} ; [ DW_TAG_subprogram ]
!794 = metadata !{i32 786453, i32 0, metadata !"", i32 0, i32 0, i64 0, i64 0, i64 0, i32 0, null, metadata !795, i32 0, i32 0} ; [ DW_TAG_subroutine_type ]
!795 = metadata !{null, metadata !796}
!796 = metadata !{i32 786447, i32 0, metadata !"", i32 0, i32 0, i64 64, i64 64, i64 0, i32 64, metadata !789} ; [ DW_TAG_pointer_type ]
!797 = metadata !{metadata !798, metadata !799}
!798 = metadata !{i32 786480, null, metadata !"_AP_N", metadata !69, i64 32, null, i32 0, i32 0} ; [ DW_TAG_template_value_parameter ]
!799 = metadata !{i32 786480, null, metadata !"_AP_S", metadata !44, i64 1, null, i32 0, i32 0} ; [ DW_TAG_template_value_parameter ]
!800 = metadata !{i32 786478, i32 0, metadata !786, metadata !"ap_int_base", metadata !"ap_int_base", metadata !"", metadata !53, i32 1340, metadata !801, i1 false, i1 false, i32 0, i32 0, null, i32 256, i1 false, null, null, i32 0, metadata !65, i32 1340} ; [ DW_TAG_subprogram ]
!801 = metadata !{i32 786453, i32 0, metadata !"", i32 0, i32 0, i64 0, i64 0, i64 0, i32 0, null, metadata !802, i32 0, i32 0} ; [ DW_TAG_subroutine_type ]
!802 = metadata !{null, metadata !803}
!803 = metadata !{i32 786447, i32 0, metadata !"", i32 0, i32 0, i64 64, i64 64, i64 0, i32 64, metadata !786} ; [ DW_TAG_pointer_type ]
!804 = metadata !{i32 786478, i32 0, metadata !786, metadata !"ap_int_base<32, true>", metadata !"ap_int_base<32, true>", metadata !"", metadata !53, i32 1352, metadata !805, i1 false, i1 false, i32 0, i32 0, null, i32 256, i1 false, null, metadata !807, i32 0, metadata !65, i32 1352} ; [ DW_TAG_subprogram ]
!805 = metadata !{i32 786453, i32 0, metadata !"", i32 0, i32 0, i64 0, i64 0, i64 0, i32 0, null, metadata !806, i32 0, i32 0} ; [ DW_TAG_subroutine_type ]
!806 = metadata !{null, metadata !803, metadata !785}
!807 = metadata !{metadata !808, metadata !809}
!808 = metadata !{i32 786480, null, metadata !"_AP_W2", metadata !69, i64 32, null, i32 0, i32 0} ; [ DW_TAG_template_value_parameter ]
!809 = metadata !{i32 786480, null, metadata !"_AP_S2", metadata !44, i64 1, null, i32 0, i32 0} ; [ DW_TAG_template_value_parameter ]
!810 = metadata !{i32 786478, i32 0, metadata !786, metadata !"ap_int_base<32, true>", metadata !"ap_int_base<32, true>", metadata !"", metadata !53, i32 1355, metadata !805, i1 false, i1 false, i32 0, i32 0, null, i32 256, i1 false, null, metadata !807, i32 0, metadata !65, i32 1355} ; [ DW_TAG_subprogram ]
!811 = metadata !{i32 786478, i32 0, metadata !786, metadata !"ap_int_base", metadata !"ap_int_base", metadata !"", metadata !53, i32 1362, metadata !812, i1 false, i1 false, i32 0, i32 0, null, i32 384, i1 false, null, null, i32 0, metadata !65, i32 1362} ; [ DW_TAG_subprogram ]
!812 = metadata !{i32 786453, i32 0, metadata !"", i32 0, i32 0, i64 0, i64 0, i64 0, i32 0, null, metadata !813, i32 0, i32 0} ; [ DW_TAG_subroutine_type ]
!813 = metadata !{null, metadata !803, metadata !44}
!814 = metadata !{i32 786478, i32 0, metadata !786, metadata !"ap_int_base", metadata !"ap_int_base", metadata !"", metadata !53, i32 1363, metadata !815, i1 false, i1 false, i32 0, i32 0, null, i32 384, i1 false, null, null, i32 0, metadata !65, i32 1363} ; [ DW_TAG_subprogram ]
!815 = metadata !{i32 786453, i32 0, metadata !"", i32 0, i32 0, i64 0, i64 0, i64 0, i32 0, null, metadata !816, i32 0, i32 0} ; [ DW_TAG_subroutine_type ]
!816 = metadata !{null, metadata !803, metadata !89}
!817 = metadata !{i32 786478, i32 0, metadata !786, metadata !"ap_int_base", metadata !"ap_int_base", metadata !"", metadata !53, i32 1364, metadata !818, i1 false, i1 false, i32 0, i32 0, null, i32 384, i1 false, null, null, i32 0, metadata !65, i32 1364} ; [ DW_TAG_subprogram ]
!818 = metadata !{i32 786453, i32 0, metadata !"", i32 0, i32 0, i64 0, i64 0, i64 0, i32 0, null, metadata !819, i32 0, i32 0} ; [ DW_TAG_subroutine_type ]
!819 = metadata !{null, metadata !803, metadata !93}
!820 = metadata !{i32 786478, i32 0, metadata !786, metadata !"ap_int_base", metadata !"ap_int_base", metadata !"", metadata !53, i32 1365, metadata !821, i1 false, i1 false, i32 0, i32 0, null, i32 384, i1 false, null, null, i32 0, metadata !65, i32 1365} ; [ DW_TAG_subprogram ]
!821 = metadata !{i32 786453, i32 0, metadata !"", i32 0, i32 0, i64 0, i64 0, i64 0, i32 0, null, metadata !822, i32 0, i32 0} ; [ DW_TAG_subroutine_type ]
!822 = metadata !{null, metadata !803, metadata !97}
!823 = metadata !{i32 786478, i32 0, metadata !786, metadata !"ap_int_base", metadata !"ap_int_base", metadata !"", metadata !53, i32 1366, metadata !824, i1 false, i1 false, i32 0, i32 0, null, i32 384, i1 false, null, null, i32 0, metadata !65, i32 1366} ; [ DW_TAG_subprogram ]
!824 = metadata !{i32 786453, i32 0, metadata !"", i32 0, i32 0, i64 0, i64 0, i64 0, i32 0, null, metadata !825, i32 0, i32 0} ; [ DW_TAG_subroutine_type ]
!825 = metadata !{null, metadata !803, metadata !101}
!826 = metadata !{i32 786478, i32 0, metadata !786, metadata !"ap_int_base", metadata !"ap_int_base", metadata !"", metadata !53, i32 1367, metadata !827, i1 false, i1 false, i32 0, i32 0, null, i32 384, i1 false, null, null, i32 0, metadata !65, i32 1367} ; [ DW_TAG_subprogram ]
!827 = metadata !{i32 786453, i32 0, metadata !"", i32 0, i32 0, i64 0, i64 0, i64 0, i32 0, null, metadata !828, i32 0, i32 0} ; [ DW_TAG_subroutine_type ]
!828 = metadata !{null, metadata !803, metadata !69}
!829 = metadata !{i32 786478, i32 0, metadata !786, metadata !"ap_int_base", metadata !"ap_int_base", metadata !"", metadata !53, i32 1368, metadata !830, i1 false, i1 false, i32 0, i32 0, null, i32 384, i1 false, null, null, i32 0, metadata !65, i32 1368} ; [ DW_TAG_subprogram ]
!830 = metadata !{i32 786453, i32 0, metadata !"", i32 0, i32 0, i64 0, i64 0, i64 0, i32 0, null, metadata !831, i32 0, i32 0} ; [ DW_TAG_subroutine_type ]
!831 = metadata !{null, metadata !803, metadata !108}
!832 = metadata !{i32 786478, i32 0, metadata !786, metadata !"ap_int_base", metadata !"ap_int_base", metadata !"", metadata !53, i32 1369, metadata !833, i1 false, i1 false, i32 0, i32 0, null, i32 384, i1 false, null, null, i32 0, metadata !65, i32 1369} ; [ DW_TAG_subprogram ]
!833 = metadata !{i32 786453, i32 0, metadata !"", i32 0, i32 0, i64 0, i64 0, i64 0, i32 0, null, metadata !834, i32 0, i32 0} ; [ DW_TAG_subroutine_type ]
!834 = metadata !{null, metadata !803, metadata !112}
!835 = metadata !{i32 786478, i32 0, metadata !786, metadata !"ap_int_base", metadata !"ap_int_base", metadata !"", metadata !53, i32 1370, metadata !836, i1 false, i1 false, i32 0, i32 0, null, i32 384, i1 false, null, null, i32 0, metadata !65, i32 1370} ; [ DW_TAG_subprogram ]
!836 = metadata !{i32 786453, i32 0, metadata !"", i32 0, i32 0, i64 0, i64 0, i64 0, i32 0, null, metadata !837, i32 0, i32 0} ; [ DW_TAG_subroutine_type ]
!837 = metadata !{null, metadata !803, metadata !116}
!838 = metadata !{i32 786478, i32 0, metadata !786, metadata !"ap_int_base", metadata !"ap_int_base", metadata !"", metadata !53, i32 1371, metadata !839, i1 false, i1 false, i32 0, i32 0, null, i32 384, i1 false, null, null, i32 0, metadata !65, i32 1371} ; [ DW_TAG_subprogram ]
!839 = metadata !{i32 786453, i32 0, metadata !"", i32 0, i32 0, i64 0, i64 0, i64 0, i32 0, null, metadata !840, i32 0, i32 0} ; [ DW_TAG_subroutine_type ]
!840 = metadata !{null, metadata !803, metadata !120}
!841 = metadata !{i32 786478, i32 0, metadata !786, metadata !"ap_int_base", metadata !"ap_int_base", metadata !"", metadata !53, i32 1372, metadata !842, i1 false, i1 false, i32 0, i32 0, null, i32 384, i1 false, null, null, i32 0, metadata !65, i32 1372} ; [ DW_TAG_subprogram ]
!842 = metadata !{i32 786453, i32 0, metadata !"", i32 0, i32 0, i64 0, i64 0, i64 0, i32 0, null, metadata !843, i32 0, i32 0} ; [ DW_TAG_subroutine_type ]
!843 = metadata !{null, metadata !803, metadata !125}
!844 = metadata !{i32 786478, i32 0, metadata !786, metadata !"ap_int_base", metadata !"ap_int_base", metadata !"", metadata !53, i32 1373, metadata !845, i1 false, i1 false, i32 0, i32 0, null, i32 384, i1 false, null, null, i32 0, metadata !65, i32 1373} ; [ DW_TAG_subprogram ]
!845 = metadata !{i32 786453, i32 0, metadata !"", i32 0, i32 0, i64 0, i64 0, i64 0, i32 0, null, metadata !846, i32 0, i32 0} ; [ DW_TAG_subroutine_type ]
!846 = metadata !{null, metadata !803, metadata !130}
!847 = metadata !{i32 786478, i32 0, metadata !786, metadata !"ap_int_base", metadata !"ap_int_base", metadata !"", metadata !53, i32 1374, metadata !848, i1 false, i1 false, i32 0, i32 0, null, i32 384, i1 false, null, null, i32 0, metadata !65, i32 1374} ; [ DW_TAG_subprogram ]
!848 = metadata !{i32 786453, i32 0, metadata !"", i32 0, i32 0, i64 0, i64 0, i64 0, i32 0, null, metadata !849, i32 0, i32 0} ; [ DW_TAG_subroutine_type ]
!849 = metadata !{null, metadata !803, metadata !134}
!850 = metadata !{i32 786478, i32 0, metadata !786, metadata !"ap_int_base", metadata !"ap_int_base", metadata !"", metadata !53, i32 1401, metadata !851, i1 false, i1 false, i32 0, i32 0, null, i32 256, i1 false, null, null, i32 0, metadata !65, i32 1401} ; [ DW_TAG_subprogram ]
!851 = metadata !{i32 786453, i32 0, metadata !"", i32 0, i32 0, i64 0, i64 0, i64 0, i32 0, null, metadata !852, i32 0, i32 0} ; [ DW_TAG_subroutine_type ]
!852 = metadata !{null, metadata !803, metadata !138}
!853 = metadata !{i32 786478, i32 0, metadata !786, metadata !"ap_int_base", metadata !"ap_int_base", metadata !"", metadata !53, i32 1408, metadata !854, i1 false, i1 false, i32 0, i32 0, null, i32 256, i1 false, null, null, i32 0, metadata !65, i32 1408} ; [ DW_TAG_subprogram ]
!854 = metadata !{i32 786453, i32 0, metadata !"", i32 0, i32 0, i64 0, i64 0, i64 0, i32 0, null, metadata !855, i32 0, i32 0} ; [ DW_TAG_subroutine_type ]
!855 = metadata !{null, metadata !803, metadata !138, metadata !89}
!856 = metadata !{i32 786478, i32 0, metadata !786, metadata !"read", metadata !"read", metadata !"_ZNV11ap_int_baseILi32ELb1ELb1EE4readEv", metadata !53, i32 1429, metadata !857, i1 false, i1 false, i32 0, i32 0, null, i32 256, i1 false, null, null, i32 0, metadata !65, i32 1429} ; [ DW_TAG_subprogram ]
!857 = metadata !{i32 786453, i32 0, metadata !"", i32 0, i32 0, i64 0, i64 0, i64 0, i32 0, null, metadata !858, i32 0, i32 0} ; [ DW_TAG_subroutine_type ]
!858 = metadata !{metadata !786, metadata !859}
!859 = metadata !{i32 786447, i32 0, metadata !"", i32 0, i32 0, i64 64, i64 64, i64 0, i32 64, metadata !860} ; [ DW_TAG_pointer_type ]
!860 = metadata !{i32 786485, null, metadata !"", null, i32 0, i64 0, i64 0, i64 0, i32 0, metadata !786} ; [ DW_TAG_volatile_type ]
!861 = metadata !{i32 786478, i32 0, metadata !786, metadata !"write", metadata !"write", metadata !"_ZNV11ap_int_baseILi32ELb1ELb1EE5writeERKS0_", metadata !53, i32 1435, metadata !862, i1 false, i1 false, i32 0, i32 0, null, i32 256, i1 false, null, null, i32 0, metadata !65, i32 1435} ; [ DW_TAG_subprogram ]
!862 = metadata !{i32 786453, i32 0, metadata !"", i32 0, i32 0, i64 0, i64 0, i64 0, i32 0, null, metadata !863, i32 0, i32 0} ; [ DW_TAG_subroutine_type ]
!863 = metadata !{null, metadata !859, metadata !785}
!864 = metadata !{i32 786478, i32 0, metadata !786, metadata !"operator=", metadata !"operator=", metadata !"_ZNV11ap_int_baseILi32ELb1ELb1EEaSERVKS0_", metadata !53, i32 1447, metadata !862, i1 false, i1 false, i32 0, i32 0, null, i32 256, i1 false, null, null, i32 0, metadata !65, i32 1447} ; [ DW_TAG_subprogram ]
!865 = metadata !{i32 786478, i32 0, metadata !786, metadata !"operator=", metadata !"operator=", metadata !"_ZNV11ap_int_baseILi32ELb1ELb1EEaSERKS0_", metadata !53, i32 1456, metadata !862, i1 false, i1 false, i32 0, i32 0, null, i32 256, i1 false, null, null, i32 0, metadata !65, i32 1456} ; [ DW_TAG_subprogram ]
!866 = metadata !{i32 786478, i32 0, metadata !786, metadata !"operator=", metadata !"operator=", metadata !"_ZN11ap_int_baseILi32ELb1ELb1EEaSERVKS0_", metadata !53, i32 1479, metadata !867, i1 false, i1 false, i32 0, i32 0, null, i32 256, i1 false, null, null, i32 0, metadata !65, i32 1479} ; [ DW_TAG_subprogram ]
!867 = metadata !{i32 786453, i32 0, metadata !"", i32 0, i32 0, i64 0, i64 0, i64 0, i32 0, null, metadata !868, i32 0, i32 0} ; [ DW_TAG_subroutine_type ]
!868 = metadata !{metadata !785, metadata !803, metadata !785}
!869 = metadata !{i32 786478, i32 0, metadata !786, metadata !"operator=", metadata !"operator=", metadata !"_ZN11ap_int_baseILi32ELb1ELb1EEaSERKS0_", metadata !53, i32 1484, metadata !867, i1 false, i1 false, i32 0, i32 0, null, i32 256, i1 false, null, null, i32 0, metadata !65, i32 1484} ; [ DW_TAG_subprogram ]
!870 = metadata !{i32 786478, i32 0, metadata !786, metadata !"operator=", metadata !"operator=", metadata !"_ZN11ap_int_baseILi32ELb1ELb1EEaSEPKc", metadata !53, i32 1488, metadata !871, i1 false, i1 false, i32 0, i32 0, null, i32 256, i1 false, null, null, i32 0, metadata !65, i32 1488} ; [ DW_TAG_subprogram ]
!871 = metadata !{i32 786453, i32 0, metadata !"", i32 0, i32 0, i64 0, i64 0, i64 0, i32 0, null, metadata !872, i32 0, i32 0} ; [ DW_TAG_subroutine_type ]
!872 = metadata !{metadata !785, metadata !803, metadata !138}
!873 = metadata !{i32 786478, i32 0, metadata !786, metadata !"set", metadata !"set", metadata !"_ZN11ap_int_baseILi32ELb1ELb1EE3setEPKca", metadata !53, i32 1496, metadata !874, i1 false, i1 false, i32 0, i32 0, null, i32 256, i1 false, null, null, i32 0, metadata !65, i32 1496} ; [ DW_TAG_subprogram ]
!874 = metadata !{i32 786453, i32 0, metadata !"", i32 0, i32 0, i64 0, i64 0, i64 0, i32 0, null, metadata !875, i32 0, i32 0} ; [ DW_TAG_subroutine_type ]
!875 = metadata !{metadata !785, metadata !803, metadata !138, metadata !89}
!876 = metadata !{i32 786478, i32 0, metadata !786, metadata !"operator=", metadata !"operator=", metadata !"_ZN11ap_int_baseILi32ELb1ELb1EEaSEy", metadata !53, i32 1505, metadata !877, i1 false, i1 false, i32 0, i32 0, null, i32 256, i1 false, null, null, i32 0, metadata !65, i32 1505} ; [ DW_TAG_subprogram ]
!877 = metadata !{i32 786453, i32 0, metadata !"", i32 0, i32 0, i64 0, i64 0, i64 0, i32 0, null, metadata !878, i32 0, i32 0} ; [ DW_TAG_subroutine_type ]
!878 = metadata !{metadata !785, metadata !803, metadata !126}
!879 = metadata !{i32 786478, i32 0, metadata !786, metadata !"operator=", metadata !"operator=", metadata !"_ZN11ap_int_baseILi32ELb1ELb1EEaSEx", metadata !53, i32 1510, metadata !880, i1 false, i1 false, i32 0, i32 0, null, i32 256, i1 false, null, null, i32 0, metadata !65, i32 1510} ; [ DW_TAG_subprogram ]
!880 = metadata !{i32 786453, i32 0, metadata !"", i32 0, i32 0, i64 0, i64 0, i64 0, i32 0, null, metadata !881, i32 0, i32 0} ; [ DW_TAG_subroutine_type ]
!881 = metadata !{metadata !785, metadata !803, metadata !121}
!882 = metadata !{i32 786478, i32 0, metadata !786, metadata !"operator long long", metadata !"operator long long", metadata !"_ZNK11ap_int_baseILi32ELb1ELb1EEcvxEv", metadata !53, i32 1551, metadata !883, i1 false, i1 false, i32 0, i32 0, null, i32 256, i1 false, null, null, i32 0, metadata !65, i32 1551} ; [ DW_TAG_subprogram ]
!883 = metadata !{i32 786453, i32 0, metadata !"", i32 0, i32 0, i64 0, i64 0, i64 0, i32 0, null, metadata !884, i32 0, i32 0} ; [ DW_TAG_subroutine_type ]
!884 = metadata !{metadata !885, metadata !889}
!885 = metadata !{i32 786454, metadata !786, metadata !"RetType", metadata !53, i32 1307, i64 0, i64 0, i64 0, i32 0, metadata !886} ; [ DW_TAG_typedef ]
!886 = metadata !{i32 786454, metadata !887, metadata !"Type", metadata !53, i32 1289, i64 0, i64 0, i64 0, i32 0, metadata !120} ; [ DW_TAG_typedef ]
!887 = metadata !{i32 786434, null, metadata !"retval<true>", metadata !53, i32 1288, i64 8, i64 8, i32 0, i32 0, null, metadata !176, i32 0, null, metadata !888} ; [ DW_TAG_class_type ]
!888 = metadata !{metadata !799}
!889 = metadata !{i32 786447, i32 0, metadata !"", i32 0, i32 0, i64 64, i64 64, i64 0, i32 64, metadata !890} ; [ DW_TAG_pointer_type ]
!890 = metadata !{i32 786470, null, metadata !"", null, i32 0, i64 0, i64 0, i64 0, i32 0, metadata !786} ; [ DW_TAG_const_type ]
!891 = metadata !{i32 786478, i32 0, metadata !786, metadata !"to_bool", metadata !"to_bool", metadata !"_ZNK11ap_int_baseILi32ELb1ELb1EE7to_boolEv", metadata !53, i32 1557, metadata !892, i1 false, i1 false, i32 0, i32 0, null, i32 256, i1 false, null, null, i32 0, metadata !65, i32 1557} ; [ DW_TAG_subprogram ]
!892 = metadata !{i32 786453, i32 0, metadata !"", i32 0, i32 0, i64 0, i64 0, i64 0, i32 0, null, metadata !893, i32 0, i32 0} ; [ DW_TAG_subroutine_type ]
!893 = metadata !{metadata !44, metadata !889}
!894 = metadata !{i32 786478, i32 0, metadata !786, metadata !"to_int", metadata !"to_int", metadata !"_ZNK11ap_int_baseILi32ELb1ELb1EE6to_intEv", metadata !53, i32 1558, metadata !895, i1 false, i1 false, i32 0, i32 0, null, i32 256, i1 false, null, null, i32 0, metadata !65, i32 1558} ; [ DW_TAG_subprogram ]
!895 = metadata !{i32 786453, i32 0, metadata !"", i32 0, i32 0, i64 0, i64 0, i64 0, i32 0, null, metadata !896, i32 0, i32 0} ; [ DW_TAG_subroutine_type ]
!896 = metadata !{metadata !69, metadata !889}
!897 = metadata !{i32 786478, i32 0, metadata !786, metadata !"to_uint", metadata !"to_uint", metadata !"_ZNK11ap_int_baseILi32ELb1ELb1EE7to_uintEv", metadata !53, i32 1559, metadata !898, i1 false, i1 false, i32 0, i32 0, null, i32 256, i1 false, null, null, i32 0, metadata !65, i32 1559} ; [ DW_TAG_subprogram ]
!898 = metadata !{i32 786453, i32 0, metadata !"", i32 0, i32 0, i64 0, i64 0, i64 0, i32 0, null, metadata !899, i32 0, i32 0} ; [ DW_TAG_subroutine_type ]
!899 = metadata !{metadata !108, metadata !889}
!900 = metadata !{i32 786478, i32 0, metadata !786, metadata !"to_long", metadata !"to_long", metadata !"_ZNK11ap_int_baseILi32ELb1ELb1EE7to_longEv", metadata !53, i32 1560, metadata !901, i1 false, i1 false, i32 0, i32 0, null, i32 256, i1 false, null, null, i32 0, metadata !65, i32 1560} ; [ DW_TAG_subprogram ]
!901 = metadata !{i32 786453, i32 0, metadata !"", i32 0, i32 0, i64 0, i64 0, i64 0, i32 0, null, metadata !902, i32 0, i32 0} ; [ DW_TAG_subroutine_type ]
!902 = metadata !{metadata !112, metadata !889}
!903 = metadata !{i32 786478, i32 0, metadata !786, metadata !"to_ulong", metadata !"to_ulong", metadata !"_ZNK11ap_int_baseILi32ELb1ELb1EE8to_ulongEv", metadata !53, i32 1561, metadata !904, i1 false, i1 false, i32 0, i32 0, null, i32 256, i1 false, null, null, i32 0, metadata !65, i32 1561} ; [ DW_TAG_subprogram ]
!904 = metadata !{i32 786453, i32 0, metadata !"", i32 0, i32 0, i64 0, i64 0, i64 0, i32 0, null, metadata !905, i32 0, i32 0} ; [ DW_TAG_subroutine_type ]
!905 = metadata !{metadata !116, metadata !889}
!906 = metadata !{i32 786478, i32 0, metadata !786, metadata !"to_int64", metadata !"to_int64", metadata !"_ZNK11ap_int_baseILi32ELb1ELb1EE8to_int64Ev", metadata !53, i32 1562, metadata !907, i1 false, i1 false, i32 0, i32 0, null, i32 256, i1 false, null, null, i32 0, metadata !65, i32 1562} ; [ DW_TAG_subprogram ]
!907 = metadata !{i32 786453, i32 0, metadata !"", i32 0, i32 0, i64 0, i64 0, i64 0, i32 0, null, metadata !908, i32 0, i32 0} ; [ DW_TAG_subroutine_type ]
!908 = metadata !{metadata !120, metadata !889}
!909 = metadata !{i32 786478, i32 0, metadata !786, metadata !"to_uint64", metadata !"to_uint64", metadata !"_ZNK11ap_int_baseILi32ELb1ELb1EE9to_uint64Ev", metadata !53, i32 1563, metadata !910, i1 false, i1 false, i32 0, i32 0, null, i32 256, i1 false, null, null, i32 0, metadata !65, i32 1563} ; [ DW_TAG_subprogram ]
!910 = metadata !{i32 786453, i32 0, metadata !"", i32 0, i32 0, i64 0, i64 0, i64 0, i32 0, null, metadata !911, i32 0, i32 0} ; [ DW_TAG_subroutine_type ]
!911 = metadata !{metadata !125, metadata !889}
!912 = metadata !{i32 786478, i32 0, metadata !786, metadata !"to_double", metadata !"to_double", metadata !"_ZNK11ap_int_baseILi32ELb1ELb1EE9to_doubleEv", metadata !53, i32 1564, metadata !913, i1 false, i1 false, i32 0, i32 0, null, i32 256, i1 false, null, null, i32 0, metadata !65, i32 1564} ; [ DW_TAG_subprogram ]
!913 = metadata !{i32 786453, i32 0, metadata !"", i32 0, i32 0, i64 0, i64 0, i64 0, i32 0, null, metadata !914, i32 0, i32 0} ; [ DW_TAG_subroutine_type ]
!914 = metadata !{metadata !134, metadata !889}
!915 = metadata !{i32 786478, i32 0, metadata !786, metadata !"length", metadata !"length", metadata !"_ZNK11ap_int_baseILi32ELb1ELb1EE6lengthEv", metadata !53, i32 1577, metadata !895, i1 false, i1 false, i32 0, i32 0, null, i32 256, i1 false, null, null, i32 0, metadata !65, i32 1577} ; [ DW_TAG_subprogram ]
!916 = metadata !{i32 786478, i32 0, metadata !786, metadata !"length", metadata !"length", metadata !"_ZNVK11ap_int_baseILi32ELb1ELb1EE6lengthEv", metadata !53, i32 1578, metadata !917, i1 false, i1 false, i32 0, i32 0, null, i32 256, i1 false, null, null, i32 0, metadata !65, i32 1578} ; [ DW_TAG_subprogram ]
!917 = metadata !{i32 786453, i32 0, metadata !"", i32 0, i32 0, i64 0, i64 0, i64 0, i32 0, null, metadata !918, i32 0, i32 0} ; [ DW_TAG_subroutine_type ]
!918 = metadata !{metadata !69, metadata !919}
!919 = metadata !{i32 786447, i32 0, metadata !"", i32 0, i32 0, i64 64, i64 64, i64 0, i32 64, metadata !920} ; [ DW_TAG_pointer_type ]
!920 = metadata !{i32 786470, null, metadata !"", null, i32 0, i64 0, i64 0, i64 0, i32 0, metadata !860} ; [ DW_TAG_const_type ]
!921 = metadata !{i32 786478, i32 0, metadata !786, metadata !"reverse", metadata !"reverse", metadata !"_ZN11ap_int_baseILi32ELb1ELb1EE7reverseEv", metadata !53, i32 1583, metadata !922, i1 false, i1 false, i32 0, i32 0, null, i32 256, i1 false, null, null, i32 0, metadata !65, i32 1583} ; [ DW_TAG_subprogram ]
!922 = metadata !{i32 786453, i32 0, metadata !"", i32 0, i32 0, i64 0, i64 0, i64 0, i32 0, null, metadata !923, i32 0, i32 0} ; [ DW_TAG_subroutine_type ]
!923 = metadata !{metadata !785, metadata !803}
!924 = metadata !{i32 786478, i32 0, metadata !786, metadata !"iszero", metadata !"iszero", metadata !"_ZNK11ap_int_baseILi32ELb1ELb1EE6iszeroEv", metadata !53, i32 1589, metadata !892, i1 false, i1 false, i32 0, i32 0, null, i32 256, i1 false, null, null, i32 0, metadata !65, i32 1589} ; [ DW_TAG_subprogram ]
!925 = metadata !{i32 786478, i32 0, metadata !786, metadata !"is_zero", metadata !"is_zero", metadata !"_ZNK11ap_int_baseILi32ELb1ELb1EE7is_zeroEv", metadata !53, i32 1594, metadata !892, i1 false, i1 false, i32 0, i32 0, null, i32 256, i1 false, null, null, i32 0, metadata !65, i32 1594} ; [ DW_TAG_subprogram ]
!926 = metadata !{i32 786478, i32 0, metadata !786, metadata !"sign", metadata !"sign", metadata !"_ZNK11ap_int_baseILi32ELb1ELb1EE4signEv", metadata !53, i32 1599, metadata !892, i1 false, i1 false, i32 0, i32 0, null, i32 256, i1 false, null, null, i32 0, metadata !65, i32 1599} ; [ DW_TAG_subprogram ]
!927 = metadata !{i32 786478, i32 0, metadata !786, metadata !"clear", metadata !"clear", metadata !"_ZN11ap_int_baseILi32ELb1ELb1EE5clearEi", metadata !53, i32 1607, metadata !827, i1 false, i1 false, i32 0, i32 0, null, i32 256, i1 false, null, null, i32 0, metadata !65, i32 1607} ; [ DW_TAG_subprogram ]
!928 = metadata !{i32 786478, i32 0, metadata !786, metadata !"invert", metadata !"invert", metadata !"_ZN11ap_int_baseILi32ELb1ELb1EE6invertEi", metadata !53, i32 1613, metadata !827, i1 false, i1 false, i32 0, i32 0, null, i32 256, i1 false, null, null, i32 0, metadata !65, i32 1613} ; [ DW_TAG_subprogram ]
!929 = metadata !{i32 786478, i32 0, metadata !786, metadata !"test", metadata !"test", metadata !"_ZNK11ap_int_baseILi32ELb1ELb1EE4testEi", metadata !53, i32 1621, metadata !930, i1 false, i1 false, i32 0, i32 0, null, i32 256, i1 false, null, null, i32 0, metadata !65, i32 1621} ; [ DW_TAG_subprogram ]
!930 = metadata !{i32 786453, i32 0, metadata !"", i32 0, i32 0, i64 0, i64 0, i64 0, i32 0, null, metadata !931, i32 0, i32 0} ; [ DW_TAG_subroutine_type ]
!931 = metadata !{metadata !44, metadata !889, metadata !69}
!932 = metadata !{i32 786478, i32 0, metadata !786, metadata !"set", metadata !"set", metadata !"_ZN11ap_int_baseILi32ELb1ELb1EE3setEi", metadata !53, i32 1627, metadata !827, i1 false, i1 false, i32 0, i32 0, null, i32 256, i1 false, null, null, i32 0, metadata !65, i32 1627} ; [ DW_TAG_subprogram ]
!933 = metadata !{i32 786478, i32 0, metadata !786, metadata !"set", metadata !"set", metadata !"_ZN11ap_int_baseILi32ELb1ELb1EE3setEib", metadata !53, i32 1633, metadata !934, i1 false, i1 false, i32 0, i32 0, null, i32 256, i1 false, null, null, i32 0, metadata !65, i32 1633} ; [ DW_TAG_subprogram ]
!934 = metadata !{i32 786453, i32 0, metadata !"", i32 0, i32 0, i64 0, i64 0, i64 0, i32 0, null, metadata !935, i32 0, i32 0} ; [ DW_TAG_subroutine_type ]
!935 = metadata !{null, metadata !803, metadata !69, metadata !44}
!936 = metadata !{i32 786478, i32 0, metadata !786, metadata !"lrotate", metadata !"lrotate", metadata !"_ZN11ap_int_baseILi32ELb1ELb1EE7lrotateEi", metadata !53, i32 1640, metadata !827, i1 false, i1 false, i32 0, i32 0, null, i32 256, i1 false, null, null, i32 0, metadata !65, i32 1640} ; [ DW_TAG_subprogram ]
!937 = metadata !{i32 786478, i32 0, metadata !786, metadata !"rrotate", metadata !"rrotate", metadata !"_ZN11ap_int_baseILi32ELb1ELb1EE7rrotateEi", metadata !53, i32 1649, metadata !827, i1 false, i1 false, i32 0, i32 0, null, i32 256, i1 false, null, null, i32 0, metadata !65, i32 1649} ; [ DW_TAG_subprogram ]
!938 = metadata !{i32 786478, i32 0, metadata !786, metadata !"set_bit", metadata !"set_bit", metadata !"_ZN11ap_int_baseILi32ELb1ELb1EE7set_bitEib", metadata !53, i32 1657, metadata !934, i1 false, i1 false, i32 0, i32 0, null, i32 256, i1 false, null, null, i32 0, metadata !65, i32 1657} ; [ DW_TAG_subprogram ]
!939 = metadata !{i32 786478, i32 0, metadata !786, metadata !"get_bit", metadata !"get_bit", metadata !"_ZNK11ap_int_baseILi32ELb1ELb1EE7get_bitEi", metadata !53, i32 1662, metadata !930, i1 false, i1 false, i32 0, i32 0, null, i32 256, i1 false, null, null, i32 0, metadata !65, i32 1662} ; [ DW_TAG_subprogram ]
!940 = metadata !{i32 786478, i32 0, metadata !786, metadata !"b_not", metadata !"b_not", metadata !"_ZN11ap_int_baseILi32ELb1ELb1EE5b_notEv", metadata !53, i32 1667, metadata !801, i1 false, i1 false, i32 0, i32 0, null, i32 256, i1 false, null, null, i32 0, metadata !65, i32 1667} ; [ DW_TAG_subprogram ]
!941 = metadata !{i32 786478, i32 0, metadata !786, metadata !"countLeadingZeros", metadata !"countLeadingZeros", metadata !"_ZN11ap_int_baseILi32ELb1ELb1EE17countLeadingZerosEv", metadata !53, i32 1674, metadata !942, i1 false, i1 false, i32 0, i32 0, null, i32 256, i1 false, null, null, i32 0, metadata !65, i32 1674} ; [ DW_TAG_subprogram ]
!942 = metadata !{i32 786453, i32 0, metadata !"", i32 0, i32 0, i64 0, i64 0, i64 0, i32 0, null, metadata !943, i32 0, i32 0} ; [ DW_TAG_subroutine_type ]
!943 = metadata !{metadata !69, metadata !803}
!944 = metadata !{i32 786478, i32 0, metadata !786, metadata !"operator++", metadata !"operator++", metadata !"_ZN11ap_int_baseILi32ELb1ELb1EEppEv", metadata !53, i32 1731, metadata !922, i1 false, i1 false, i32 0, i32 0, null, i32 256, i1 false, null, null, i32 0, metadata !65, i32 1731} ; [ DW_TAG_subprogram ]
!945 = metadata !{i32 786478, i32 0, metadata !786, metadata !"operator--", metadata !"operator--", metadata !"_ZN11ap_int_baseILi32ELb1ELb1EEmmEv", metadata !53, i32 1735, metadata !922, i1 false, i1 false, i32 0, i32 0, null, i32 256, i1 false, null, null, i32 0, metadata !65, i32 1735} ; [ DW_TAG_subprogram ]
!946 = metadata !{i32 786478, i32 0, metadata !786, metadata !"operator++", metadata !"operator++", metadata !"_ZN11ap_int_baseILi32ELb1ELb1EEppEi", metadata !53, i32 1743, metadata !947, i1 false, i1 false, i32 0, i32 0, null, i32 256, i1 false, null, null, i32 0, metadata !65, i32 1743} ; [ DW_TAG_subprogram ]
!947 = metadata !{i32 786453, i32 0, metadata !"", i32 0, i32 0, i64 0, i64 0, i64 0, i32 0, null, metadata !948, i32 0, i32 0} ; [ DW_TAG_subroutine_type ]
!948 = metadata !{metadata !890, metadata !803, metadata !69}
!949 = metadata !{i32 786478, i32 0, metadata !786, metadata !"operator--", metadata !"operator--", metadata !"_ZN11ap_int_baseILi32ELb1ELb1EEmmEi", metadata !53, i32 1748, metadata !947, i1 false, i1 false, i32 0, i32 0, null, i32 256, i1 false, null, null, i32 0, metadata !65, i32 1748} ; [ DW_TAG_subprogram ]
!950 = metadata !{i32 786478, i32 0, metadata !786, metadata !"operator+", metadata !"operator+", metadata !"_ZNK11ap_int_baseILi32ELb1ELb1EEpsEv", metadata !53, i32 1757, metadata !951, i1 false, i1 false, i32 0, i32 0, null, i32 256, i1 false, null, null, i32 0, metadata !65, i32 1757} ; [ DW_TAG_subprogram ]
!951 = metadata !{i32 786453, i32 0, metadata !"", i32 0, i32 0, i64 0, i64 0, i64 0, i32 0, null, metadata !952, i32 0, i32 0} ; [ DW_TAG_subroutine_type ]
!952 = metadata !{metadata !786, metadata !889}
!953 = metadata !{i32 786478, i32 0, metadata !786, metadata !"operator!", metadata !"operator!", metadata !"_ZNK11ap_int_baseILi32ELb1ELb1EEntEv", metadata !53, i32 1763, metadata !892, i1 false, i1 false, i32 0, i32 0, null, i32 256, i1 false, null, null, i32 0, metadata !65, i32 1763} ; [ DW_TAG_subprogram ]
!954 = metadata !{i32 786478, i32 0, metadata !786, metadata !"operator-", metadata !"operator-", metadata !"_ZNK11ap_int_baseILi32ELb1ELb1EEngEv", metadata !53, i32 1768, metadata !955, i1 false, i1 false, i32 0, i32 0, null, i32 256, i1 false, null, null, i32 0, metadata !65, i32 1768} ; [ DW_TAG_subprogram ]
!955 = metadata !{i32 786453, i32 0, metadata !"", i32 0, i32 0, i64 0, i64 0, i64 0, i32 0, null, metadata !956, i32 0, i32 0} ; [ DW_TAG_subroutine_type ]
!956 = metadata !{metadata !957, metadata !889}
!957 = metadata !{i32 786434, null, metadata !"ap_int_base<33, true, true>", metadata !53, i32 1302, i64 64, i64 64, i32 0, i32 0, null, metadata !958, i32 0, null, metadata !1164} ; [ DW_TAG_class_type ]
!958 = metadata !{metadata !959, metadata !970, metadata !974, metadata !977, metadata !980, metadata !983, metadata !986, metadata !989, metadata !992, metadata !995, metadata !998, metadata !1001, metadata !1004, metadata !1007, metadata !1010, metadata !1013, metadata !1016, metadata !1019, metadata !1024, metadata !1028, metadata !1029, metadata !1030, metadata !1033, metadata !1034, metadata !1037, metadata !1040, metadata !1043, metadata !1046, metadata !1052, metadata !1055, metadata !1058, metadata !1061, metadata !1064, metadata !1067, metadata !1070, metadata !1073, metadata !1076, metadata !1077, metadata !1082, metadata !1085, metadata !1086, metadata !1087, metadata !1088, metadata !1089, metadata !1090, metadata !1093, metadata !1094, metadata !1097, metadata !1098, metadata !1099, metadata !1100, metadata !1101, metadata !1102, metadata !1105, metadata !1106, metadata !1107, metadata !1110, metadata !1111, metadata !1114, metadata !1115, metadata !1119, metadata !1123, metadata !1124, metadata !1127, metadata !1128, metadata !1166, metadata !1167, metadata !1168, metadata !1169, metadata !1172, metadata !1173, metadata !1174, metadata !1175, metadata !1176, metadata !1177, metadata !1178, metadata !1179, metadata !1180, metadata !1181, metadata !1182, metadata !1183, metadata !1186, metadata !1189}
!959 = metadata !{i32 786460, metadata !957, null, metadata !53, i32 0, i64 0, i64 0, i64 0, i32 0, metadata !960} ; [ DW_TAG_inheritance ]
!960 = metadata !{i32 786434, null, metadata !"ssdm_int<33 + 1024 * 0, true>", metadata !57, i32 35, i64 64, i64 64, i32 0, i32 0, null, metadata !961, i32 0, null, metadata !968} ; [ DW_TAG_class_type ]
!961 = metadata !{metadata !962, metadata !964}
!962 = metadata !{i32 786445, metadata !960, metadata !"V", metadata !57, i32 35, i64 33, i64 64, i64 0, i32 0, metadata !963} ; [ DW_TAG_member ]
!963 = metadata !{i32 786468, null, metadata !"int33", null, i32 0, i64 33, i64 64, i64 0, i32 0, i32 5} ; [ DW_TAG_base_type ]
!964 = metadata !{i32 786478, i32 0, metadata !960, metadata !"ssdm_int", metadata !"ssdm_int", metadata !"", metadata !57, i32 35, metadata !965, i1 false, i1 false, i32 0, i32 0, null, i32 256, i1 false, null, null, i32 0, metadata !65, i32 35} ; [ DW_TAG_subprogram ]
!965 = metadata !{i32 786453, i32 0, metadata !"", i32 0, i32 0, i64 0, i64 0, i64 0, i32 0, null, metadata !966, i32 0, i32 0} ; [ DW_TAG_subroutine_type ]
!966 = metadata !{null, metadata !967}
!967 = metadata !{i32 786447, i32 0, metadata !"", i32 0, i32 0, i64 64, i64 64, i64 0, i32 64, metadata !960} ; [ DW_TAG_pointer_type ]
!968 = metadata !{metadata !969, metadata !799}
!969 = metadata !{i32 786480, null, metadata !"_AP_N", metadata !69, i64 33, null, i32 0, i32 0} ; [ DW_TAG_template_value_parameter ]
!970 = metadata !{i32 786478, i32 0, metadata !957, metadata !"ap_int_base", metadata !"ap_int_base", metadata !"", metadata !53, i32 1340, metadata !971, i1 false, i1 false, i32 0, i32 0, null, i32 256, i1 false, null, null, i32 0, metadata !65, i32 1340} ; [ DW_TAG_subprogram ]
!971 = metadata !{i32 786453, i32 0, metadata !"", i32 0, i32 0, i64 0, i64 0, i64 0, i32 0, null, metadata !972, i32 0, i32 0} ; [ DW_TAG_subroutine_type ]
!972 = metadata !{null, metadata !973}
!973 = metadata !{i32 786447, i32 0, metadata !"", i32 0, i32 0, i64 64, i64 64, i64 0, i32 64, metadata !957} ; [ DW_TAG_pointer_type ]
!974 = metadata !{i32 786478, i32 0, metadata !957, metadata !"ap_int_base", metadata !"ap_int_base", metadata !"", metadata !53, i32 1362, metadata !975, i1 false, i1 false, i32 0, i32 0, null, i32 384, i1 false, null, null, i32 0, metadata !65, i32 1362} ; [ DW_TAG_subprogram ]
!975 = metadata !{i32 786453, i32 0, metadata !"", i32 0, i32 0, i64 0, i64 0, i64 0, i32 0, null, metadata !976, i32 0, i32 0} ; [ DW_TAG_subroutine_type ]
!976 = metadata !{null, metadata !973, metadata !44}
!977 = metadata !{i32 786478, i32 0, metadata !957, metadata !"ap_int_base", metadata !"ap_int_base", metadata !"", metadata !53, i32 1363, metadata !978, i1 false, i1 false, i32 0, i32 0, null, i32 384, i1 false, null, null, i32 0, metadata !65, i32 1363} ; [ DW_TAG_subprogram ]
!978 = metadata !{i32 786453, i32 0, metadata !"", i32 0, i32 0, i64 0, i64 0, i64 0, i32 0, null, metadata !979, i32 0, i32 0} ; [ DW_TAG_subroutine_type ]
!979 = metadata !{null, metadata !973, metadata !89}
!980 = metadata !{i32 786478, i32 0, metadata !957, metadata !"ap_int_base", metadata !"ap_int_base", metadata !"", metadata !53, i32 1364, metadata !981, i1 false, i1 false, i32 0, i32 0, null, i32 384, i1 false, null, null, i32 0, metadata !65, i32 1364} ; [ DW_TAG_subprogram ]
!981 = metadata !{i32 786453, i32 0, metadata !"", i32 0, i32 0, i64 0, i64 0, i64 0, i32 0, null, metadata !982, i32 0, i32 0} ; [ DW_TAG_subroutine_type ]
!982 = metadata !{null, metadata !973, metadata !93}
!983 = metadata !{i32 786478, i32 0, metadata !957, metadata !"ap_int_base", metadata !"ap_int_base", metadata !"", metadata !53, i32 1365, metadata !984, i1 false, i1 false, i32 0, i32 0, null, i32 384, i1 false, null, null, i32 0, metadata !65, i32 1365} ; [ DW_TAG_subprogram ]
!984 = metadata !{i32 786453, i32 0, metadata !"", i32 0, i32 0, i64 0, i64 0, i64 0, i32 0, null, metadata !985, i32 0, i32 0} ; [ DW_TAG_subroutine_type ]
!985 = metadata !{null, metadata !973, metadata !97}
!986 = metadata !{i32 786478, i32 0, metadata !957, metadata !"ap_int_base", metadata !"ap_int_base", metadata !"", metadata !53, i32 1366, metadata !987, i1 false, i1 false, i32 0, i32 0, null, i32 384, i1 false, null, null, i32 0, metadata !65, i32 1366} ; [ DW_TAG_subprogram ]
!987 = metadata !{i32 786453, i32 0, metadata !"", i32 0, i32 0, i64 0, i64 0, i64 0, i32 0, null, metadata !988, i32 0, i32 0} ; [ DW_TAG_subroutine_type ]
!988 = metadata !{null, metadata !973, metadata !101}
!989 = metadata !{i32 786478, i32 0, metadata !957, metadata !"ap_int_base", metadata !"ap_int_base", metadata !"", metadata !53, i32 1367, metadata !990, i1 false, i1 false, i32 0, i32 0, null, i32 384, i1 false, null, null, i32 0, metadata !65, i32 1367} ; [ DW_TAG_subprogram ]
!990 = metadata !{i32 786453, i32 0, metadata !"", i32 0, i32 0, i64 0, i64 0, i64 0, i32 0, null, metadata !991, i32 0, i32 0} ; [ DW_TAG_subroutine_type ]
!991 = metadata !{null, metadata !973, metadata !69}
!992 = metadata !{i32 786478, i32 0, metadata !957, metadata !"ap_int_base", metadata !"ap_int_base", metadata !"", metadata !53, i32 1368, metadata !993, i1 false, i1 false, i32 0, i32 0, null, i32 384, i1 false, null, null, i32 0, metadata !65, i32 1368} ; [ DW_TAG_subprogram ]
!993 = metadata !{i32 786453, i32 0, metadata !"", i32 0, i32 0, i64 0, i64 0, i64 0, i32 0, null, metadata !994, i32 0, i32 0} ; [ DW_TAG_subroutine_type ]
!994 = metadata !{null, metadata !973, metadata !108}
!995 = metadata !{i32 786478, i32 0, metadata !957, metadata !"ap_int_base", metadata !"ap_int_base", metadata !"", metadata !53, i32 1369, metadata !996, i1 false, i1 false, i32 0, i32 0, null, i32 384, i1 false, null, null, i32 0, metadata !65, i32 1369} ; [ DW_TAG_subprogram ]
!996 = metadata !{i32 786453, i32 0, metadata !"", i32 0, i32 0, i64 0, i64 0, i64 0, i32 0, null, metadata !997, i32 0, i32 0} ; [ DW_TAG_subroutine_type ]
!997 = metadata !{null, metadata !973, metadata !112}
!998 = metadata !{i32 786478, i32 0, metadata !957, metadata !"ap_int_base", metadata !"ap_int_base", metadata !"", metadata !53, i32 1370, metadata !999, i1 false, i1 false, i32 0, i32 0, null, i32 384, i1 false, null, null, i32 0, metadata !65, i32 1370} ; [ DW_TAG_subprogram ]
!999 = metadata !{i32 786453, i32 0, metadata !"", i32 0, i32 0, i64 0, i64 0, i64 0, i32 0, null, metadata !1000, i32 0, i32 0} ; [ DW_TAG_subroutine_type ]
!1000 = metadata !{null, metadata !973, metadata !116}
!1001 = metadata !{i32 786478, i32 0, metadata !957, metadata !"ap_int_base", metadata !"ap_int_base", metadata !"", metadata !53, i32 1371, metadata !1002, i1 false, i1 false, i32 0, i32 0, null, i32 384, i1 false, null, null, i32 0, metadata !65, i32 1371} ; [ DW_TAG_subprogram ]
!1002 = metadata !{i32 786453, i32 0, metadata !"", i32 0, i32 0, i64 0, i64 0, i64 0, i32 0, null, metadata !1003, i32 0, i32 0} ; [ DW_TAG_subroutine_type ]
!1003 = metadata !{null, metadata !973, metadata !120}
!1004 = metadata !{i32 786478, i32 0, metadata !957, metadata !"ap_int_base", metadata !"ap_int_base", metadata !"", metadata !53, i32 1372, metadata !1005, i1 false, i1 false, i32 0, i32 0, null, i32 384, i1 false, null, null, i32 0, metadata !65, i32 1372} ; [ DW_TAG_subprogram ]
!1005 = metadata !{i32 786453, i32 0, metadata !"", i32 0, i32 0, i64 0, i64 0, i64 0, i32 0, null, metadata !1006, i32 0, i32 0} ; [ DW_TAG_subroutine_type ]
!1006 = metadata !{null, metadata !973, metadata !125}
!1007 = metadata !{i32 786478, i32 0, metadata !957, metadata !"ap_int_base", metadata !"ap_int_base", metadata !"", metadata !53, i32 1373, metadata !1008, i1 false, i1 false, i32 0, i32 0, null, i32 384, i1 false, null, null, i32 0, metadata !65, i32 1373} ; [ DW_TAG_subprogram ]
!1008 = metadata !{i32 786453, i32 0, metadata !"", i32 0, i32 0, i64 0, i64 0, i64 0, i32 0, null, metadata !1009, i32 0, i32 0} ; [ DW_TAG_subroutine_type ]
!1009 = metadata !{null, metadata !973, metadata !130}
!1010 = metadata !{i32 786478, i32 0, metadata !957, metadata !"ap_int_base", metadata !"ap_int_base", metadata !"", metadata !53, i32 1374, metadata !1011, i1 false, i1 false, i32 0, i32 0, null, i32 384, i1 false, null, null, i32 0, metadata !65, i32 1374} ; [ DW_TAG_subprogram ]
!1011 = metadata !{i32 786453, i32 0, metadata !"", i32 0, i32 0, i64 0, i64 0, i64 0, i32 0, null, metadata !1012, i32 0, i32 0} ; [ DW_TAG_subroutine_type ]
!1012 = metadata !{null, metadata !973, metadata !134}
!1013 = metadata !{i32 786478, i32 0, metadata !957, metadata !"ap_int_base", metadata !"ap_int_base", metadata !"", metadata !53, i32 1401, metadata !1014, i1 false, i1 false, i32 0, i32 0, null, i32 256, i1 false, null, null, i32 0, metadata !65, i32 1401} ; [ DW_TAG_subprogram ]
!1014 = metadata !{i32 786453, i32 0, metadata !"", i32 0, i32 0, i64 0, i64 0, i64 0, i32 0, null, metadata !1015, i32 0, i32 0} ; [ DW_TAG_subroutine_type ]
!1015 = metadata !{null, metadata !973, metadata !138}
!1016 = metadata !{i32 786478, i32 0, metadata !957, metadata !"ap_int_base", metadata !"ap_int_base", metadata !"", metadata !53, i32 1408, metadata !1017, i1 false, i1 false, i32 0, i32 0, null, i32 256, i1 false, null, null, i32 0, metadata !65, i32 1408} ; [ DW_TAG_subprogram ]
!1017 = metadata !{i32 786453, i32 0, metadata !"", i32 0, i32 0, i64 0, i64 0, i64 0, i32 0, null, metadata !1018, i32 0, i32 0} ; [ DW_TAG_subroutine_type ]
!1018 = metadata !{null, metadata !973, metadata !138, metadata !89}
!1019 = metadata !{i32 786478, i32 0, metadata !957, metadata !"read", metadata !"read", metadata !"_ZNV11ap_int_baseILi33ELb1ELb1EE4readEv", metadata !53, i32 1429, metadata !1020, i1 false, i1 false, i32 0, i32 0, null, i32 256, i1 false, null, null, i32 0, metadata !65, i32 1429} ; [ DW_TAG_subprogram ]
!1020 = metadata !{i32 786453, i32 0, metadata !"", i32 0, i32 0, i64 0, i64 0, i64 0, i32 0, null, metadata !1021, i32 0, i32 0} ; [ DW_TAG_subroutine_type ]
!1021 = metadata !{metadata !957, metadata !1022}
!1022 = metadata !{i32 786447, i32 0, metadata !"", i32 0, i32 0, i64 64, i64 64, i64 0, i32 64, metadata !1023} ; [ DW_TAG_pointer_type ]
!1023 = metadata !{i32 786485, null, metadata !"", null, i32 0, i64 0, i64 0, i64 0, i32 0, metadata !957} ; [ DW_TAG_volatile_type ]
!1024 = metadata !{i32 786478, i32 0, metadata !957, metadata !"write", metadata !"write", metadata !"_ZNV11ap_int_baseILi33ELb1ELb1EE5writeERKS0_", metadata !53, i32 1435, metadata !1025, i1 false, i1 false, i32 0, i32 0, null, i32 256, i1 false, null, null, i32 0, metadata !65, i32 1435} ; [ DW_TAG_subprogram ]
!1025 = metadata !{i32 786453, i32 0, metadata !"", i32 0, i32 0, i64 0, i64 0, i64 0, i32 0, null, metadata !1026, i32 0, i32 0} ; [ DW_TAG_subroutine_type ]
!1026 = metadata !{null, metadata !1022, metadata !1027}
!1027 = metadata !{i32 786448, null, null, null, i32 0, i64 0, i64 0, i64 0, i32 0, metadata !957} ; [ DW_TAG_reference_type ]
!1028 = metadata !{i32 786478, i32 0, metadata !957, metadata !"operator=", metadata !"operator=", metadata !"_ZNV11ap_int_baseILi33ELb1ELb1EEaSERVKS0_", metadata !53, i32 1447, metadata !1025, i1 false, i1 false, i32 0, i32 0, null, i32 256, i1 false, null, null, i32 0, metadata !65, i32 1447} ; [ DW_TAG_subprogram ]
!1029 = metadata !{i32 786478, i32 0, metadata !957, metadata !"operator=", metadata !"operator=", metadata !"_ZNV11ap_int_baseILi33ELb1ELb1EEaSERKS0_", metadata !53, i32 1456, metadata !1025, i1 false, i1 false, i32 0, i32 0, null, i32 256, i1 false, null, null, i32 0, metadata !65, i32 1456} ; [ DW_TAG_subprogram ]
!1030 = metadata !{i32 786478, i32 0, metadata !957, metadata !"operator=", metadata !"operator=", metadata !"_ZN11ap_int_baseILi33ELb1ELb1EEaSERVKS0_", metadata !53, i32 1479, metadata !1031, i1 false, i1 false, i32 0, i32 0, null, i32 256, i1 false, null, null, i32 0, metadata !65, i32 1479} ; [ DW_TAG_subprogram ]
!1031 = metadata !{i32 786453, i32 0, metadata !"", i32 0, i32 0, i64 0, i64 0, i64 0, i32 0, null, metadata !1032, i32 0, i32 0} ; [ DW_TAG_subroutine_type ]
!1032 = metadata !{metadata !1027, metadata !973, metadata !1027}
!1033 = metadata !{i32 786478, i32 0, metadata !957, metadata !"operator=", metadata !"operator=", metadata !"_ZN11ap_int_baseILi33ELb1ELb1EEaSERKS0_", metadata !53, i32 1484, metadata !1031, i1 false, i1 false, i32 0, i32 0, null, i32 256, i1 false, null, null, i32 0, metadata !65, i32 1484} ; [ DW_TAG_subprogram ]
!1034 = metadata !{i32 786478, i32 0, metadata !957, metadata !"operator=", metadata !"operator=", metadata !"_ZN11ap_int_baseILi33ELb1ELb1EEaSEPKc", metadata !53, i32 1488, metadata !1035, i1 false, i1 false, i32 0, i32 0, null, i32 256, i1 false, null, null, i32 0, metadata !65, i32 1488} ; [ DW_TAG_subprogram ]
!1035 = metadata !{i32 786453, i32 0, metadata !"", i32 0, i32 0, i64 0, i64 0, i64 0, i32 0, null, metadata !1036, i32 0, i32 0} ; [ DW_TAG_subroutine_type ]
!1036 = metadata !{metadata !1027, metadata !973, metadata !138}
!1037 = metadata !{i32 786478, i32 0, metadata !957, metadata !"set", metadata !"set", metadata !"_ZN11ap_int_baseILi33ELb1ELb1EE3setEPKca", metadata !53, i32 1496, metadata !1038, i1 false, i1 false, i32 0, i32 0, null, i32 256, i1 false, null, null, i32 0, metadata !65, i32 1496} ; [ DW_TAG_subprogram ]
!1038 = metadata !{i32 786453, i32 0, metadata !"", i32 0, i32 0, i64 0, i64 0, i64 0, i32 0, null, metadata !1039, i32 0, i32 0} ; [ DW_TAG_subroutine_type ]
!1039 = metadata !{metadata !1027, metadata !973, metadata !138, metadata !89}
!1040 = metadata !{i32 786478, i32 0, metadata !957, metadata !"operator=", metadata !"operator=", metadata !"_ZN11ap_int_baseILi33ELb1ELb1EEaSEy", metadata !53, i32 1505, metadata !1041, i1 false, i1 false, i32 0, i32 0, null, i32 256, i1 false, null, null, i32 0, metadata !65, i32 1505} ; [ DW_TAG_subprogram ]
!1041 = metadata !{i32 786453, i32 0, metadata !"", i32 0, i32 0, i64 0, i64 0, i64 0, i32 0, null, metadata !1042, i32 0, i32 0} ; [ DW_TAG_subroutine_type ]
!1042 = metadata !{metadata !1027, metadata !973, metadata !126}
!1043 = metadata !{i32 786478, i32 0, metadata !957, metadata !"operator=", metadata !"operator=", metadata !"_ZN11ap_int_baseILi33ELb1ELb1EEaSEx", metadata !53, i32 1510, metadata !1044, i1 false, i1 false, i32 0, i32 0, null, i32 256, i1 false, null, null, i32 0, metadata !65, i32 1510} ; [ DW_TAG_subprogram ]
!1044 = metadata !{i32 786453, i32 0, metadata !"", i32 0, i32 0, i64 0, i64 0, i64 0, i32 0, null, metadata !1045, i32 0, i32 0} ; [ DW_TAG_subroutine_type ]
!1045 = metadata !{metadata !1027, metadata !973, metadata !121}
!1046 = metadata !{i32 786478, i32 0, metadata !957, metadata !"operator long long", metadata !"operator long long", metadata !"_ZNK11ap_int_baseILi33ELb1ELb1EEcvxEv", metadata !53, i32 1551, metadata !1047, i1 false, i1 false, i32 0, i32 0, null, i32 256, i1 false, null, null, i32 0, metadata !65, i32 1551} ; [ DW_TAG_subprogram ]
!1047 = metadata !{i32 786453, i32 0, metadata !"", i32 0, i32 0, i64 0, i64 0, i64 0, i32 0, null, metadata !1048, i32 0, i32 0} ; [ DW_TAG_subroutine_type ]
!1048 = metadata !{metadata !1049, metadata !1050}
!1049 = metadata !{i32 786454, metadata !957, metadata !"RetType", metadata !53, i32 1307, i64 0, i64 0, i64 0, i32 0, metadata !886} ; [ DW_TAG_typedef ]
!1050 = metadata !{i32 786447, i32 0, metadata !"", i32 0, i32 0, i64 64, i64 64, i64 0, i32 64, metadata !1051} ; [ DW_TAG_pointer_type ]
!1051 = metadata !{i32 786470, null, metadata !"", null, i32 0, i64 0, i64 0, i64 0, i32 0, metadata !957} ; [ DW_TAG_const_type ]
!1052 = metadata !{i32 786478, i32 0, metadata !957, metadata !"to_bool", metadata !"to_bool", metadata !"_ZNK11ap_int_baseILi33ELb1ELb1EE7to_boolEv", metadata !53, i32 1557, metadata !1053, i1 false, i1 false, i32 0, i32 0, null, i32 256, i1 false, null, null, i32 0, metadata !65, i32 1557} ; [ DW_TAG_subprogram ]
!1053 = metadata !{i32 786453, i32 0, metadata !"", i32 0, i32 0, i64 0, i64 0, i64 0, i32 0, null, metadata !1054, i32 0, i32 0} ; [ DW_TAG_subroutine_type ]
